

Microchip MPLAB XC8 Assembler V2.36 build 20220127204148 
                                                                                               Wed Apr 27 14:37:06 2022

Microchip MPLAB XC8 C Compiler v2.36 (Free license) build 20220127204148 Og1 
     1                           	processor	16F887
     2                           	pagewidth 120
     3                           	opt	flic
     4                           	psect	cinit,global,class=CODE,merge=1,delta=2
     5                           	psect	bssBANK0,global,class=BANK0,space=1,delta=1,noexec
     6                           	psect	cstackBANK1,global,class=BANK1,space=1,delta=1,noexec
     7                           	psect	cstackCOMMON,global,class=COMMON,space=1,delta=1,noexec
     8                           	psect	cstackBANK0,global,class=BANK0,space=1,delta=1,noexec
     9                           	psect	maintext,global,class=CODE,split=1,delta=2
    10                           	psect	text1,local,class=CODE,merge=1,delta=2
    11                           	psect	text2,local,class=CODE,merge=1,delta=2
    12                           	psect	text3,local,class=CODE,merge=1,delta=2
    13                           	psect	text4,local,class=CODE,merge=1,delta=2
    14                           	psect	text5,local,class=CODE,merge=1,delta=2
    15                           	psect	text6,local,class=CODE,merge=1,delta=2
    16                           	psect	text7,local,class=CODE,merge=1,delta=2
    17                           	psect	text8,local,class=CODE,merge=1,delta=2
    18                           	psect	intentry,global,class=CODE,delta=2
    19                           	psect	text9,local,class=CODE,merge=1,delta=2
    20                           	psect	text10,local,class=CODE,merge=1,delta=2,group=1
    21                           	psect	text11,local,class=CODE,merge=1,delta=2,group=1
    22                           	psect	text12,local,class=CODE,merge=1,delta=2,group=1
    23                           	psect	text13,local,class=CODE,merge=1,delta=2,group=1
    24                           	psect	text14,local,class=CODE,merge=1,delta=2,group=1
    25                           	psect	text15,local,class=CODE,merge=1,delta=2,group=1
    26                           	psect	idloc,global,abs,ovrld,class=IDLOC,space=5,delta=2,noexec
    27                           	psect	config,global,abs,ovrld,class=CONFIG,space=4,delta=2,noexec
    28                           	dabs	1,0x7E,2
    29  0000                     
    30                           ; Version 2.40
    31                           ; Generated 17/11/2021 GMT
    32                           ; 
    33                           ; Copyright © 2021, Microchip Technology Inc. and its subsidiaries ("Microchip")
    34                           ; All rights reserved.
    35                           ; 
    36                           ; This software is developed by Microchip Technology Inc. and its subsidiaries ("Microch
      +                          ip").
    37                           ; 
    38                           ; Redistribution and use in source and binary forms, with or without modification, are
    39                           ; permitted provided that the following conditions are met:
    40                           ; 
    41                           ;     1. Redistributions of source code must retain the above copyright notice, this lis
      +                          t of
    42                           ;        conditions and the following disclaimer.
    43                           ; 
    44                           ;     2. Redistributions in binary form must reproduce the above copyright notice, this 
      +                          list
    45                           ;        of conditions and the following disclaimer in the documentation and/or other
    46                           ;        materials provided with the distribution. Publication is not required when
    47                           ;        this file is used in an embedded application.
    48                           ; 
    49                           ;     3. Microchip's name may not be used to endorse or promote products derived from th
      +                          is
    50                           ;        software without specific prior written permission.
    51                           ; 
    52                           ; THIS SOFTWARE IS PROVIDED BY MICROCHIP "AS IS" AND ANY EXPRESS OR IMPLIED WARRANTIES,
    53                           ; INCLUDING, BUT NOT LIMITED TO, THE IMPLIED WARRANTIES OF MERCHANTABILITY AND FITNESS F
      +                          OR
    54                           ; PURPOSE ARE DISCLAIMED.  IN NO EVENT SHALL MICROCHIP BE LIABLE FOR ANY DIRECT, INDIREC
      +                          T,
    55                           ; INCIDENTAL, SPECIAL, EXEMPLARY, OR CONSEQUENTIAL DAMAGES (INCLUDING BUT NOT LIMITED TO
    56                           ; PROCUREMENT OF SUBSTITUTE GOODS OR SERVICES; LOSS OF USE, DATA OR PROFITS; OR BUSINESS
    57                           ; INTERRUPTION) HOWSOEVER CAUSED AND ON ANY THEORY OF LIABILITY, WHETHER IN CONTRACT, ST
      +                          RICT
    58                           ; LIABILITY, OR TORT (INCLUDING NEGLIGENCE OR OTHERWISE) ARISING IN ANY WAY OUT OF THE U
      +                          SE OF
    59                           ; THIS SOFTWARE, EVEN IF ADVISED OF THE POSSIBILITY OF SUCH DAMAGE.
    60                           ; 
    61                           ; 
    62                           ; Code-generator required, PIC16F887 Definitions
    63                           ; 
    64                           ; SFR Addresses
    65  0000                     	;# 
    66  0001                     	;# 
    67  0002                     	;# 
    68  0003                     	;# 
    69  0004                     	;# 
    70  0005                     	;# 
    71  0006                     	;# 
    72  0007                     	;# 
    73  0008                     	;# 
    74  0009                     	;# 
    75  000A                     	;# 
    76  000B                     	;# 
    77  000C                     	;# 
    78  000D                     	;# 
    79  000E                     	;# 
    80  000E                     	;# 
    81  000F                     	;# 
    82  0010                     	;# 
    83  0011                     	;# 
    84  0012                     	;# 
    85  0013                     	;# 
    86  0014                     	;# 
    87  0015                     	;# 
    88  0015                     	;# 
    89  0016                     	;# 
    90  0017                     	;# 
    91  0018                     	;# 
    92  0019                     	;# 
    93  001A                     	;# 
    94  001B                     	;# 
    95  001B                     	;# 
    96  001C                     	;# 
    97  001D                     	;# 
    98  001E                     	;# 
    99  001F                     	;# 
   100  0081                     	;# 
   101  0085                     	;# 
   102  0086                     	;# 
   103  0087                     	;# 
   104  0088                     	;# 
   105  0089                     	;# 
   106  008C                     	;# 
   107  008D                     	;# 
   108  008E                     	;# 
   109  008F                     	;# 
   110  0090                     	;# 
   111  0091                     	;# 
   112  0092                     	;# 
   113  0093                     	;# 
   114  0093                     	;# 
   115  0093                     	;# 
   116  0094                     	;# 
   117  0095                     	;# 
   118  0096                     	;# 
   119  0097                     	;# 
   120  0098                     	;# 
   121  0099                     	;# 
   122  009A                     	;# 
   123  009B                     	;# 
   124  009C                     	;# 
   125  009D                     	;# 
   126  009E                     	;# 
   127  009F                     	;# 
   128  0105                     	;# 
   129  0107                     	;# 
   130  0108                     	;# 
   131  0109                     	;# 
   132  010C                     	;# 
   133  010C                     	;# 
   134  010D                     	;# 
   135  010E                     	;# 
   136  010F                     	;# 
   137  0185                     	;# 
   138  0187                     	;# 
   139  0188                     	;# 
   140  0189                     	;# 
   141  018C                     	;# 
   142  018D                     	;# 
   143  0000                     	;# 
   144  0001                     	;# 
   145  0002                     	;# 
   146  0003                     	;# 
   147  0004                     	;# 
   148  0005                     	;# 
   149  0006                     	;# 
   150  0007                     	;# 
   151  0008                     	;# 
   152  0009                     	;# 
   153  000A                     	;# 
   154  000B                     	;# 
   155  000C                     	;# 
   156  000D                     	;# 
   157  000E                     	;# 
   158  000E                     	;# 
   159  000F                     	;# 
   160  0010                     	;# 
   161  0011                     	;# 
   162  0012                     	;# 
   163  0013                     	;# 
   164  0014                     	;# 
   165  0015                     	;# 
   166  0015                     	;# 
   167  0016                     	;# 
   168  0017                     	;# 
   169  0018                     	;# 
   170  0019                     	;# 
   171  001A                     	;# 
   172  001B                     	;# 
   173  001B                     	;# 
   174  001C                     	;# 
   175  001D                     	;# 
   176  001E                     	;# 
   177  001F                     	;# 
   178  0081                     	;# 
   179  0085                     	;# 
   180  0086                     	;# 
   181  0087                     	;# 
   182  0088                     	;# 
   183  0089                     	;# 
   184  008C                     	;# 
   185  008D                     	;# 
   186  008E                     	;# 
   187  008F                     	;# 
   188  0090                     	;# 
   189  0091                     	;# 
   190  0092                     	;# 
   191  0093                     	;# 
   192  0093                     	;# 
   193  0093                     	;# 
   194  0094                     	;# 
   195  0095                     	;# 
   196  0096                     	;# 
   197  0097                     	;# 
   198  0098                     	;# 
   199  0099                     	;# 
   200  009A                     	;# 
   201  009B                     	;# 
   202  009C                     	;# 
   203  009D                     	;# 
   204  009E                     	;# 
   205  009F                     	;# 
   206  0105                     	;# 
   207  0107                     	;# 
   208  0108                     	;# 
   209  0109                     	;# 
   210  010C                     	;# 
   211  010C                     	;# 
   212  010D                     	;# 
   213  010E                     	;# 
   214  010F                     	;# 
   215  0185                     	;# 
   216  0187                     	;# 
   217  0188                     	;# 
   218  0189                     	;# 
   219  018C                     	;# 
   220  018D                     	;# 
   221  001E                     _ADRESH	set	30
   222  0005                     _PORTA	set	5
   223  0015                     _CCPR1L	set	21
   224  0017                     _CCP1CONbits	set	23
   225  0017                     _CCP1CON	set	23
   226  0012                     _T2CONbits	set	18
   227  000C                     _PIR1bits	set	12
   228  000B                     _INTCONbits	set	11
   229  001F                     _ADCON0bits	set	31
   230  0085                     _TRISA	set	133
   231  0092                     _PR2	set	146
   232  0087                     _TRISCbits	set	135
   233  008C                     _PIE1bits	set	140
   234  009F                     _ADCON1bits	set	159
   235  008F                     _OSCCONbits	set	143
   236  0189                     _ANSELH	set	393
   237  0188                     _ANSEL	set	392
   238                           
   239                           	psect	cinit
   240  0013                     start_initialization:	
   241                           ; #config settings
   242                           
   243  0013                     __initialization:
   244                           
   245                           ; Clear objects allocated to BANK0
   246  0013  1283               	bcf	3,5	;RP0=0, select bank0
   247  0014  1303               	bcf	3,6	;RP1=0, select bank0
   248  0015  01EC               	clrf	__pbssBANK0& (0+127)
   249  0016  01ED               	clrf	(__pbssBANK0+1)& (0+127)
   250  0017                     end_of_initialization:	
   251                           ;End of C runtime variable initialization code
   252                           
   253  0017                     __end_of__initialization:
   254  0017  0183               	clrf	3
   255  0018  120A  118A  2FCD   	ljmp	_main	;jump to C main() function
   256                           
   257                           	psect	bssBANK0
   258  006C                     __pbssBANK0:
   259  006C                     _CCPR:
   260  006C                     	ds	2
   261                           
   262                           	psect	cstackBANK1
   263  00A0                     __pcstackBANK1:
   264  00A0                     ??_isr:
   265                           
   266                           ; 1 bytes @ 0x0
   267  00A0                     	ds	5
   268  00A5                     ??_clk:
   269  00A5                     ??_setup_adc:	
   270                           ; 1 bytes @ 0x5
   271                           
   272  00A5                     ??_setup_int:	
   273                           ; 1 bytes @ 0x5
   274                           
   275  00A5                     ??_timer2:	
   276                           ; 1 bytes @ 0x5
   277                           
   278  00A5                     ??_setup_pwm:	
   279                           ; 1 bytes @ 0x5
   280                           
   281  00A5                     ??_setup_ccp:	
   282                           ; 1 bytes @ 0x5
   283                           
   284  00A5                     ??_setup:	
   285                           ; 1 bytes @ 0x5
   286                           
   287  00A5                     ??_main:	
   288                           ; 1 bytes @ 0x5
   289                           
   290                           
   291                           	psect	cstackCOMMON
   292  0070                     __pcstackCOMMON:	
   293                           ; 1 bytes @ 0x5
   294                           
   295  0070                     ?_clk:
   296  0070                     ?_setup_adc:	
   297                           ; 1 bytes @ 0x0
   298                           
   299  0070                     ?_setup_int:	
   300                           ; 1 bytes @ 0x0
   301                           
   302  0070                     ?_timer2:	
   303                           ; 1 bytes @ 0x0
   304                           
   305  0070                     ?_setup_pwm:	
   306                           ; 1 bytes @ 0x0
   307                           
   308  0070                     ?_setup_ccp:	
   309                           ; 1 bytes @ 0x0
   310                           
   311  0070                     ?_setup:	
   312                           ; 1 bytes @ 0x0
   313                           
   314  0070                     ?_isr:	
   315                           ; 1 bytes @ 0x0
   316                           
   317  0070                     ?_main:	
   318                           ; 1 bytes @ 0x0
   319                           
   320  0070                     ?__Umul8_16:	
   321                           ; 1 bytes @ 0x0
   322                           
   323  0070                     ?___lwdiv:	
   324                           ; 2 bytes @ 0x0
   325                           
   326  0070                     __Umul8_16@multiplicand:	
   327                           ; 2 bytes @ 0x0
   328                           
   329  0070                     ___lwdiv@divisor:	
   330                           ; 1 bytes @ 0x0
   331                           
   332                           
   333                           ; 2 bytes @ 0x0
   334  0070                     	ds	2
   335  0072                     ??__Umul8_16:
   336  0072                     ___lwdiv@dividend:	
   337                           ; 1 bytes @ 0x2
   338                           
   339                           
   340                           ; 2 bytes @ 0x2
   341  0072                     	ds	2
   342  0074                     ??___lwdiv:
   343  0074                     __Umul8_16@product:	
   344                           ; 1 bytes @ 0x4
   345                           
   346                           
   347                           ; 2 bytes @ 0x4
   348  0074                     	ds	1
   349  0075                     ___lwdiv@quotient:
   350                           
   351                           ; 2 bytes @ 0x5
   352  0075                     	ds	1
   353  0076                     __Umul8_16@word_mpld:
   354                           
   355                           ; 2 bytes @ 0x6
   356  0076                     	ds	1
   357  0077                     ___lwdiv@counter:
   358                           
   359                           ; 1 bytes @ 0x7
   360  0077                     	ds	1
   361  0078                     ?___xxtofl:
   362  0078                     __Umul8_16@multiplier:	
   363                           ; 4 bytes @ 0x8
   364                           
   365  0078                     ___xxtofl@val:	
   366                           ; 1 bytes @ 0x8
   367                           
   368                           
   369                           ; 4 bytes @ 0x8
   370  0078                     	ds	4
   371  007C                     ___fltol@sign1:
   372                           
   373                           ; 1 bytes @ 0xC
   374  007C                     	ds	1
   375  007D                     ___fltol@exp1:
   376                           
   377                           ; 1 bytes @ 0xD
   378  007D                     	ds	1
   379                           
   380                           	psect	cstackBANK0
   381  0020                     __pcstackBANK0:
   382  0020                     ??___xxtofl:
   383                           
   384                           ; 1 bytes @ 0x0
   385  0020                     	ds	4
   386  0024                     ___xxtofl@sign:
   387                           
   388                           ; 1 bytes @ 0x4
   389  0024                     	ds	1
   390  0025                     ___xxtofl@exp:
   391                           
   392                           ; 1 bytes @ 0x5
   393  0025                     	ds	1
   394  0026                     ___xxtofl@arg:
   395                           
   396                           ; 4 bytes @ 0x6
   397  0026                     	ds	4
   398  002A                     ?___flmul:
   399  002A                     ___flmul@b:	
   400                           ; 4 bytes @ 0xA
   401                           
   402                           
   403                           ; 4 bytes @ 0xA
   404  002A                     	ds	4
   405  002E                     ___flmul@a:
   406                           
   407                           ; 4 bytes @ 0xE
   408  002E                     	ds	4
   409  0032                     ??___flmul:
   410                           
   411                           ; 1 bytes @ 0x12
   412  0032                     	ds	5
   413  0037                     ___flmul@sign:
   414                           
   415                           ; 1 bytes @ 0x17
   416  0037                     	ds	1
   417  0038                     ___flmul@grs:
   418                           
   419                           ; 4 bytes @ 0x18
   420  0038                     	ds	4
   421  003C                     ___flmul@aexp:
   422                           
   423                           ; 1 bytes @ 0x1C
   424  003C                     	ds	1
   425  003D                     ___flmul@bexp:
   426                           
   427                           ; 1 bytes @ 0x1D
   428  003D                     	ds	1
   429  003E                     ___flmul@prod:
   430                           
   431                           ; 4 bytes @ 0x1E
   432  003E                     	ds	4
   433  0042                     ___flmul@temp:
   434                           
   435                           ; 2 bytes @ 0x22
   436  0042                     	ds	2
   437  0044                     ?___fladd:
   438  0044                     ___fladd@b:	
   439                           ; 4 bytes @ 0x24
   440                           
   441                           
   442                           ; 4 bytes @ 0x24
   443  0044                     	ds	4
   444  0048                     ___fladd@a:
   445                           
   446                           ; 4 bytes @ 0x28
   447  0048                     	ds	4
   448  004C                     ??___fladd:
   449                           
   450                           ; 1 bytes @ 0x2C
   451  004C                     	ds	8
   452  0054                     ___fladd@signs:
   453                           
   454                           ; 1 bytes @ 0x34
   455  0054                     	ds	1
   456  0055                     ___fladd@aexp:
   457                           
   458                           ; 1 bytes @ 0x35
   459  0055                     	ds	1
   460  0056                     ___fladd@bexp:
   461                           
   462                           ; 1 bytes @ 0x36
   463  0056                     	ds	1
   464  0057                     ___fladd@grs:
   465                           
   466                           ; 1 bytes @ 0x37
   467  0057                     	ds	1
   468  0058                     ?___fltol:
   469  0058                     ___fltol@f1:	
   470                           ; 4 bytes @ 0x38
   471                           
   472                           
   473                           ; 4 bytes @ 0x38
   474  0058                     	ds	4
   475  005C                     ??___fltol:
   476                           
   477                           ; 1 bytes @ 0x3C
   478  005C                     	ds	5
   479  0061                     ?_map:
   480  0061                     map@x0:	
   481                           ; 2 bytes @ 0x41
   482                           
   483                           
   484                           ; 1 bytes @ 0x41
   485  0061                     	ds	1
   486  0062                     map@x1:
   487                           
   488                           ; 1 bytes @ 0x42
   489  0062                     	ds	1
   490  0063                     map@y0:
   491                           
   492                           ; 2 bytes @ 0x43
   493  0063                     	ds	2
   494  0065                     map@y1:
   495                           
   496                           ; 2 bytes @ 0x45
   497  0065                     	ds	2
   498  0067                     ??_map:
   499                           
   500                           ; 1 bytes @ 0x47
   501  0067                     	ds	4
   502  006B                     map@x:
   503                           
   504                           ; 1 bytes @ 0x4B
   505  006B                     	ds	1
   506                           
   507                           	psect	maintext
   508  07CD                     __pmaintext:	
   509 ;;
   510 ;;Main: autosize = 0, tempsize = 0, incstack = 0, save=0
   511 ;;
   512 ;; *************** function _main *****************
   513 ;; Defined at:
   514 ;;		line 136 in file "lab09_pre_pgr.c"
   515 ;; Parameters:    Size  Location     Type
   516 ;;		None
   517 ;; Auto vars:     Size  Location     Type
   518 ;;		None
   519 ;; Return value:  Size  Location     Type
   520 ;;                  1    wreg      void 
   521 ;; Registers used:
   522 ;;		wreg, status,2, status,0, pclath, cstack
   523 ;; Tracked objects:
   524 ;;		On entry : B00/0
   525 ;;		On exit  : 0/0
   526 ;;		Unchanged: 0/0
   527 ;; Data sizes:     COMMON   BANK0   BANK1   BANK3   BANK2
   528 ;;      Params:         0       0       0       0       0
   529 ;;      Locals:         0       0       0       0       0
   530 ;;      Temps:          0       0       0       0       0
   531 ;;      Totals:         0       0       0       0       0
   532 ;;Total ram usage:        0 bytes
   533 ;; Hardware stack levels required when called: 5
   534 ;; This function calls:
   535 ;;		_clk
   536 ;;		_setup
   537 ;;		_setup_adc
   538 ;;		_setup_ccp
   539 ;;		_setup_int
   540 ;;		_setup_pwm
   541 ;;		_timer2
   542 ;; This function is called by:
   543 ;;		Startup code after reset
   544 ;; This function uses a non-reentrant model
   545 ;;
   546                           
   547  07CD                     _main:	
   548                           ;psect for function _main
   549                           
   550  07CD                     l1729:	
   551                           ;incstack = 0
   552                           ; Regs used in _main: [wreg+status,2+status,0+pclath+cstack]
   553                           
   554                           
   555                           ;lab09_pre_pgr.c: 137:     setup();
   556  07CD  120A  158A  2707  120A  118A  	fcall	_setup
   557                           
   558                           ;lab09_pre_pgr.c: 138:     clk();
   559  07D2  120A  158A  26E1  120A  118A  	fcall	_clk
   560                           
   561                           ;lab09_pre_pgr.c: 139:     setup_adc();
   562  07D7  120A  158A  2721  120A  118A  	fcall	_setup_adc
   563  07DC                     l1731:
   564                           
   565                           ;lab09_pre_pgr.c: 140:     setup_int();
   566  07DC  120A  158A  26E9  120A  118A  	fcall	_setup_int
   567  07E1                     l1733:
   568                           
   569                           ;lab09_pre_pgr.c: 141:     setup_pwm();
   570  07E1  120A  158A  26F2  120A  118A  	fcall	_setup_pwm
   571  07E6                     l1735:
   572                           
   573                           ;lab09_pre_pgr.c: 142:     setup_ccp();
   574  07E6  120A  158A  2714  120A  118A  	fcall	_setup_ccp
   575  07EB                     l1737:
   576                           
   577                           ;lab09_pre_pgr.c: 143:     timer2();
   578  07EB  120A  158A  26FB  120A  118A  	fcall	_timer2
   579  07F0                     l1739:
   580                           
   581                           ;lab09_pre_pgr.c: 144:     TRISCbits.TRISC2 = 0;
   582  07F0  1683               	bsf	3,5	;RP0=1, select bank1
   583  07F1  1303               	bcf	3,6	;RP1=0, select bank1
   584  07F2  1107               	bcf	7,2	;volatile
   585  07F3                     l1741:
   586                           
   587                           ;lab09_pre_pgr.c: 146:         if(ADCON0bits.GO == 0)
   588  07F3  1283               	bcf	3,5	;RP0=0, select bank0
   589  07F4  189F               	btfsc	31,1	;volatile
   590  07F5  2FF7               	goto	u2421
   591  07F6  2FF8               	goto	u2420
   592  07F7                     u2421:
   593  07F7  2FF3               	goto	l1741
   594  07F8                     u2420:
   595  07F8                     l1743:
   596                           
   597                           ;lab09_pre_pgr.c: 147:             ADCON0bits.GO = 1;
   598  07F8  149F               	bsf	31,1	;volatile
   599  07F9  2FF3               	goto	l1741
   600  07FA  120A  118A  2810   	ljmp	start
   601  07FD                     __end_of_main:
   602                           
   603                           	psect	text1
   604  0EFB                     __ptext1:	
   605 ;; *************** function _timer2 *****************
   606 ;; Defined at:
   607 ;;		line 74 in file "lab09_pre_pgr.c"
   608 ;; Parameters:    Size  Location     Type
   609 ;;		None
   610 ;; Auto vars:     Size  Location     Type
   611 ;;		None
   612 ;; Return value:  Size  Location     Type
   613 ;;                  1    wreg      void 
   614 ;; Registers used:
   615 ;;		wreg, status,2, status,0
   616 ;; Tracked objects:
   617 ;;		On entry : 0/0
   618 ;;		On exit  : 0/0
   619 ;;		Unchanged: 0/0
   620 ;; Data sizes:     COMMON   BANK0   BANK1   BANK3   BANK2
   621 ;;      Params:         0       0       0       0       0
   622 ;;      Locals:         0       0       0       0       0
   623 ;;      Temps:          0       0       0       0       0
   624 ;;      Totals:         0       0       0       0       0
   625 ;;Total ram usage:        0 bytes
   626 ;; Hardware stack levels used: 1
   627 ;; Hardware stack levels required when called: 4
   628 ;; This function calls:
   629 ;;		Nothing
   630 ;; This function is called by:
   631 ;;		_main
   632 ;; This function uses a non-reentrant model
   633 ;;
   634                           
   635  0EFB                     _timer2:	
   636                           ;psect for function _timer2
   637                           
   638  0EFB                     l1681:	
   639                           ;incstack = 0
   640                           ; Regs used in _timer2: [wreg+status,2+status,0]
   641                           
   642                           
   643                           ;lab09_pre_pgr.c: 75:     PIR1bits.TMR2IF = 0;
   644  0EFB  1283               	bcf	3,5	;RP0=0, select bank0
   645  0EFC  1303               	bcf	3,6	;RP1=0, select bank0
   646  0EFD  108C               	bcf	12,1	;volatile
   647  0EFE                     l1683:
   648                           
   649                           ;lab09_pre_pgr.c: 76:     T2CONbits.T2CKPS = 0b11;
   650  0EFE  3003               	movlw	3
   651  0EFF  0492               	iorwf	18,f	;volatile
   652  0F00                     l1685:
   653                           
   654                           ;lab09_pre_pgr.c: 77:     T2CONbits.TMR2ON = 1;
   655  0F00  1512               	bsf	18,2	;volatile
   656  0F01                     l50:	
   657                           ;lab09_pre_pgr.c: 78:     while(!PIR1bits.TMR2IF);
   658                           
   659  0F01  1C8C               	btfss	12,1	;volatile
   660  0F02  2F04               	goto	u2391
   661  0F03  2F05               	goto	u2390
   662  0F04                     u2391:
   663  0F04  2F01               	goto	l50
   664  0F05                     u2390:
   665  0F05                     l52:
   666                           
   667                           ;lab09_pre_pgr.c: 79:     PIR1bits.TMR2IF = 0;
   668  0F05  108C               	bcf	12,1	;volatile
   669  0F06                     l53:	
   670                           ;lab09_pre_pgr.c: 80:     return;
   671                           
   672  0F06  0008               	return
   673  0F07                     __end_of_timer2:
   674                           
   675                           	psect	text2
   676  0EF2                     __ptext2:	
   677 ;; *************** function _setup_pwm *****************
   678 ;; Defined at:
   679 ;;		line 83 in file "lab09_pre_pgr.c"
   680 ;; Parameters:    Size  Location     Type
   681 ;;		None
   682 ;; Auto vars:     Size  Location     Type
   683 ;;		None
   684 ;; Return value:  Size  Location     Type
   685 ;;                  1    wreg      void 
   686 ;; Registers used:
   687 ;;		wreg, status,2
   688 ;; Tracked objects:
   689 ;;		On entry : 0/0
   690 ;;		On exit  : 0/0
   691 ;;		Unchanged: 0/0
   692 ;; Data sizes:     COMMON   BANK0   BANK1   BANK3   BANK2
   693 ;;      Params:         0       0       0       0       0
   694 ;;      Locals:         0       0       0       0       0
   695 ;;      Temps:          0       0       0       0       0
   696 ;;      Totals:         0       0       0       0       0
   697 ;;Total ram usage:        0 bytes
   698 ;; Hardware stack levels used: 1
   699 ;; Hardware stack levels required when called: 4
   700 ;; This function calls:
   701 ;;		Nothing
   702 ;; This function is called by:
   703 ;;		_main
   704 ;; This function uses a non-reentrant model
   705 ;;
   706                           
   707  0EF2                     _setup_pwm:	
   708                           ;psect for function _setup_pwm
   709                           
   710  0EF2                     l1687:	
   711                           ;incstack = 0
   712                           ; Regs used in _setup_pwm: [wreg+status,2]
   713                           
   714                           
   715                           ;lab09_pre_pgr.c: 84:     CCP1CON = 0;
   716  0EF2  1283               	bcf	3,5	;RP0=0, select bank0
   717  0EF3  1303               	bcf	3,6	;RP1=0, select bank0
   718  0EF4  0197               	clrf	23	;volatile
   719  0EF5                     l1689:
   720                           
   721                           ;lab09_pre_pgr.c: 85:     TRISCbits.TRISC2 = 1;
   722  0EF5  1683               	bsf	3,5	;RP0=1, select bank1
   723  0EF6  1303               	bcf	3,6	;RP1=0, select bank1
   724  0EF7  1507               	bsf	7,2	;volatile
   725  0EF8                     l1691:
   726                           
   727                           ;lab09_pre_pgr.c: 86:     PR2 = 155;
   728  0EF8  309B               	movlw	155
   729  0EF9  0092               	movwf	18	;volatile
   730  0EFA                     l56:
   731  0EFA  0008               	return
   732  0EFB                     __end_of_setup_pwm:
   733                           
   734                           	psect	text3
   735  0EE9                     __ptext3:	
   736 ;; *************** function _setup_int *****************
   737 ;; Defined at:
   738 ;;		line 65 in file "lab09_pre_pgr.c"
   739 ;; Parameters:    Size  Location     Type
   740 ;;		None
   741 ;; Auto vars:     Size  Location     Type
   742 ;;		None
   743 ;; Return value:  Size  Location     Type
   744 ;;                  1    wreg      void 
   745 ;; Registers used:
   746 ;;		None
   747 ;; Tracked objects:
   748 ;;		On entry : 0/0
   749 ;;		On exit  : 0/0
   750 ;;		Unchanged: 0/0
   751 ;; Data sizes:     COMMON   BANK0   BANK1   BANK3   BANK2
   752 ;;      Params:         0       0       0       0       0
   753 ;;      Locals:         0       0       0       0       0
   754 ;;      Temps:          0       0       0       0       0
   755 ;;      Totals:         0       0       0       0       0
   756 ;;Total ram usage:        0 bytes
   757 ;; Hardware stack levels used: 1
   758 ;; Hardware stack levels required when called: 4
   759 ;; This function calls:
   760 ;;		Nothing
   761 ;; This function is called by:
   762 ;;		_main
   763 ;; This function uses a non-reentrant model
   764 ;;
   765                           
   766  0EE9                     _setup_int:	
   767                           ;psect for function _setup_int
   768                           
   769  0EE9                     l1679:	
   770                           ;incstack = 0
   771                           ; Regs used in _setup_int: []
   772                           
   773                           
   774                           ;lab09_pre_pgr.c: 66:     INTCONbits.GIE = 1;
   775  0EE9  178B               	bsf	11,7	;volatile
   776                           
   777                           ;lab09_pre_pgr.c: 67:     INTCONbits.PEIE = 1;
   778  0EEA  170B               	bsf	11,6	;volatile
   779                           
   780                           ;lab09_pre_pgr.c: 68:     PIE1bits.ADIE = 1;
   781  0EEB  1683               	bsf	3,5	;RP0=1, select bank1
   782  0EEC  1303               	bcf	3,6	;RP1=0, select bank1
   783  0EED  170C               	bsf	12,6	;volatile
   784                           
   785                           ;lab09_pre_pgr.c: 70:     PIR1bits.ADIF = 0;
   786  0EEE  1283               	bcf	3,5	;RP0=0, select bank0
   787  0EEF  1303               	bcf	3,6	;RP1=0, select bank0
   788  0EF0  130C               	bcf	12,6	;volatile
   789  0EF1                     l47:	
   790                           ;lab09_pre_pgr.c: 71:     return;
   791                           
   792  0EF1  0008               	return
   793  0EF2                     __end_of_setup_int:
   794                           
   795                           	psect	text4
   796  0F14                     __ptext4:	
   797 ;; *************** function _setup_ccp *****************
   798 ;; Defined at:
   799 ;;		line 90 in file "lab09_pre_pgr.c"
   800 ;; Parameters:    Size  Location     Type
   801 ;;		None
   802 ;; Auto vars:     Size  Location     Type
   803 ;;		None
   804 ;; Return value:  Size  Location     Type
   805 ;;                  1    wreg      void 
   806 ;; Registers used:
   807 ;;		wreg, status,2, status,0
   808 ;; Tracked objects:
   809 ;;		On entry : 0/0
   810 ;;		On exit  : 0/0
   811 ;;		Unchanged: 0/0
   812 ;; Data sizes:     COMMON   BANK0   BANK1   BANK3   BANK2
   813 ;;      Params:         0       0       0       0       0
   814 ;;      Locals:         0       0       0       0       0
   815 ;;      Temps:          0       0       0       0       0
   816 ;;      Totals:         0       0       0       0       0
   817 ;;Total ram usage:        0 bytes
   818 ;; Hardware stack levels used: 1
   819 ;; Hardware stack levels required when called: 4
   820 ;; This function calls:
   821 ;;		Nothing
   822 ;; This function is called by:
   823 ;;		_main
   824 ;; This function uses a non-reentrant model
   825 ;;
   826                           
   827  0F14                     _setup_ccp:	
   828                           ;psect for function _setup_ccp
   829                           
   830  0F14                     l1695:	
   831                           ;incstack = 0
   832                           ; Regs used in _setup_ccp: [wreg+status,2+status,0]
   833                           
   834                           
   835                           ;lab09_pre_pgr.c: 91:     CCP1CONbits.P1M = 0;
   836  0F14  303F               	movlw	-193
   837  0F15  1283               	bcf	3,5	;RP0=0, select bank0
   838  0F16  1303               	bcf	3,6	;RP1=0, select bank0
   839  0F17  0597               	andwf	23,f	;volatile
   840                           
   841                           ;lab09_pre_pgr.c: 92:     CCP1CONbits.CCP1M = 0b1100;
   842  0F18  0817               	movf	23,w	;volatile
   843  0F19  39F0               	andlw	-16
   844  0F1A  380C               	iorlw	12
   845  0F1B  0097               	movwf	23	;volatile
   846  0F1C                     l1697:
   847                           
   848                           ;lab09_pre_pgr.c: 94:     CCPR1L = 156>>2;
   849  0F1C  3027               	movlw	39
   850  0F1D  0095               	movwf	21	;volatile
   851  0F1E                     l1699:
   852                           
   853                           ;lab09_pre_pgr.c: 95:     CCP1CONbits.DC1B = 156 & 0b11;
   854  0F1E  30CF               	movlw	-49
   855  0F1F  0597               	andwf	23,f	;volatile
   856  0F20                     l59:
   857  0F20  0008               	return
   858  0F21                     __end_of_setup_ccp:
   859                           
   860                           	psect	text5
   861  0F21                     __ptext5:	
   862 ;; *************** function _setup_adc *****************
   863 ;; Defined at:
   864 ;;		line 53 in file "lab09_pre_pgr.c"
   865 ;; Parameters:    Size  Location     Type
   866 ;;		None
   867 ;; Auto vars:     Size  Location     Type
   868 ;;		None
   869 ;; Return value:  Size  Location     Type
   870 ;;                  1    wreg      void 
   871 ;; Registers used:
   872 ;;		wreg, status,2, status,0
   873 ;; Tracked objects:
   874 ;;		On entry : 0/0
   875 ;;		On exit  : 0/0
   876 ;;		Unchanged: 0/0
   877 ;; Data sizes:     COMMON   BANK0   BANK1   BANK3   BANK2
   878 ;;      Params:         0       0       0       0       0
   879 ;;      Locals:         0       0       0       0       0
   880 ;;      Temps:          0       0       0       0       0
   881 ;;      Totals:         0       0       0       0       0
   882 ;;Total ram usage:        0 bytes
   883 ;; Hardware stack levels used: 1
   884 ;; Hardware stack levels required when called: 4
   885 ;; This function calls:
   886 ;;		Nothing
   887 ;; This function is called by:
   888 ;;		_main
   889 ;; This function uses a non-reentrant model
   890 ;;
   891                           
   892  0F21                     _setup_adc:	
   893                           ;psect for function _setup_adc
   894                           
   895  0F21                     l1669:	
   896                           ;incstack = 0
   897                           ; Regs used in _setup_adc: [wreg+status,2+status,0]
   898                           
   899                           
   900                           ;lab09_pre_pgr.c: 54:     ADCON1bits.ADFM = 0;
   901  0F21  1683               	bsf	3,5	;RP0=1, select bank1
   902  0F22  1303               	bcf	3,6	;RP1=0, select bank1
   903  0F23  139F               	bcf	31,7	;volatile
   904                           
   905                           ;lab09_pre_pgr.c: 55:     ADCON1bits.VCFG0 = 0;
   906  0F24  121F               	bcf	31,4	;volatile
   907                           
   908                           ;lab09_pre_pgr.c: 56:     ADCON1bits.VCFG1 = 0;
   909  0F25  129F               	bcf	31,5	;volatile
   910  0F26                     l1671:
   911                           
   912                           ;lab09_pre_pgr.c: 58:     ADCON0bits.ADCS = 0b00000001;
   913  0F26  1283               	bcf	3,5	;RP0=0, select bank0
   914  0F27  1303               	bcf	3,6	;RP1=0, select bank0
   915  0F28  081F               	movf	31,w	;volatile
   916  0F29  393F               	andlw	-193
   917  0F2A  3840               	iorlw	64
   918  0F2B  009F               	movwf	31	;volatile
   919                           
   920                           ;lab09_pre_pgr.c: 59:     ADCON0bits.CHS = 0;
   921  0F2C  30C3               	movlw	-61
   922  0F2D  059F               	andwf	31,f	;volatile
   923  0F2E                     l1673:
   924                           
   925                           ;lab09_pre_pgr.c: 60:     ADCON0bits.ADON = 1;
   926  0F2E  141F               	bsf	31,0	;volatile
   927  0F2F                     l1675:
   928                           
   929                           ;lab09_pre_pgr.c: 61:     _delay((unsigned long)((40)*(500000/4000000.0)));
   930  0F2F  2F30               	nop2	;2 cycle nop
   931  0F30  2F31               	nop2	;2 cycle nop
   932  0F31  0000               	nop
   933  0F32                     l44:
   934  0F32  0008               	return
   935  0F33                     __end_of_setup_adc:
   936                           
   937                           	psect	text6
   938  0F07                     __ptext6:	
   939 ;; *************** function _setup *****************
   940 ;; Defined at:
   941 ;;		line 99 in file "lab09_pre_pgr.c"
   942 ;; Parameters:    Size  Location     Type
   943 ;;		None
   944 ;; Auto vars:     Size  Location     Type
   945 ;;		None
   946 ;; Return value:  Size  Location     Type
   947 ;;                  1    wreg      void 
   948 ;; Registers used:
   949 ;;		wreg, status,2
   950 ;; Tracked objects:
   951 ;;		On entry : 0/0
   952 ;;		On exit  : 0/0
   953 ;;		Unchanged: 0/0
   954 ;; Data sizes:     COMMON   BANK0   BANK1   BANK3   BANK2
   955 ;;      Params:         0       0       0       0       0
   956 ;;      Locals:         0       0       0       0       0
   957 ;;      Temps:          0       0       0       0       0
   958 ;;      Totals:         0       0       0       0       0
   959 ;;Total ram usage:        0 bytes
   960 ;; Hardware stack levels used: 1
   961 ;; Hardware stack levels required when called: 4
   962 ;; This function calls:
   963 ;;		Nothing
   964 ;; This function is called by:
   965 ;;		_main
   966 ;; This function uses a non-reentrant model
   967 ;;
   968                           
   969  0F07                     _setup:	
   970                           ;psect for function _setup
   971                           
   972  0F07                     l1703:	
   973                           ;incstack = 0
   974                           ; Regs used in _setup: [wreg+status,2]
   975                           
   976                           
   977                           ;lab09_pre_pgr.c: 100:     ANSEL = 0b00000001;
   978  0F07  3001               	movlw	1
   979  0F08  1683               	bsf	3,5	;RP0=1, select bank3
   980  0F09  1703               	bsf	3,6	;RP1=1, select bank3
   981  0F0A  0088               	movwf	8	;volatile
   982  0F0B                     l1705:
   983                           
   984                           ;lab09_pre_pgr.c: 101:     ANSELH = 0;
   985  0F0B  0189               	clrf	9	;volatile
   986  0F0C                     l1707:
   987                           
   988                           ;lab09_pre_pgr.c: 103:     TRISA = 0b00000001;
   989  0F0C  3001               	movlw	1
   990  0F0D  1683               	bsf	3,5	;RP0=1, select bank1
   991  0F0E  1303               	bcf	3,6	;RP1=0, select bank1
   992  0F0F  0085               	movwf	5	;volatile
   993                           
   994                           ;lab09_pre_pgr.c: 106:     PORTA = 0;
   995  0F10  1283               	bcf	3,5	;RP0=0, select bank0
   996  0F11  1303               	bcf	3,6	;RP1=0, select bank0
   997  0F12  0185               	clrf	5	;volatile
   998  0F13                     l62:
   999  0F13  0008               	return
  1000  0F14                     __end_of_setup:
  1001                           
  1002                           	psect	text7
  1003  0EE1                     __ptext7:	
  1004 ;; *************** function _clk *****************
  1005 ;; Defined at:
  1006 ;;		line 47 in file "lab09_pre_pgr.c"
  1007 ;; Parameters:    Size  Location     Type
  1008 ;;		None
  1009 ;; Auto vars:     Size  Location     Type
  1010 ;;		None
  1011 ;; Return value:  Size  Location     Type
  1012 ;;                  1    wreg      void 
  1013 ;; Registers used:
  1014 ;;		wreg, status,2, status,0
  1015 ;; Tracked objects:
  1016 ;;		On entry : 0/0
  1017 ;;		On exit  : 0/0
  1018 ;;		Unchanged: 0/0
  1019 ;; Data sizes:     COMMON   BANK0   BANK1   BANK3   BANK2
  1020 ;;      Params:         0       0       0       0       0
  1021 ;;      Locals:         0       0       0       0       0
  1022 ;;      Temps:          0       0       0       0       0
  1023 ;;      Totals:         0       0       0       0       0
  1024 ;;Total ram usage:        0 bytes
  1025 ;; Hardware stack levels used: 1
  1026 ;; Hardware stack levels required when called: 4
  1027 ;; This function calls:
  1028 ;;		Nothing
  1029 ;; This function is called by:
  1030 ;;		_main
  1031 ;; This function uses a non-reentrant model
  1032 ;;
  1033                           
  1034  0EE1                     _clk:	
  1035                           ;psect for function _clk
  1036                           
  1037  0EE1                     l1663:	
  1038                           ;incstack = 0
  1039                           ; Regs used in _clk: [wreg+status,2+status,0]
  1040                           
  1041                           
  1042                           ;lab09_pre_pgr.c: 48:     OSCCONbits.IRCF = 0b0011;
  1043  0EE1  1683               	bsf	3,5	;RP0=1, select bank1
  1044  0EE2  1303               	bcf	3,6	;RP1=0, select bank1
  1045  0EE3  080F               	movf	15,w	;volatile
  1046  0EE4  398F               	andlw	-113
  1047  0EE5  3830               	iorlw	48
  1048  0EE6  008F               	movwf	15	;volatile
  1049  0EE7                     l1665:
  1050                           
  1051                           ;lab09_pre_pgr.c: 49:     OSCCONbits.SCS = 1;
  1052  0EE7  140F               	bsf	15,0	;volatile
  1053  0EE8                     l41:
  1054  0EE8  0008               	return
  1055  0EE9                     __end_of_clk:
  1056                           
  1057                           	psect	text8
  1058  0F9E                     __ptext8:	
  1059 ;; *************** function _isr *****************
  1060 ;; Defined at:
  1061 ;;		line 124 in file "lab09_pre_pgr.c"
  1062 ;; Parameters:    Size  Location     Type
  1063 ;;		None
  1064 ;; Auto vars:     Size  Location     Type
  1065 ;;		None
  1066 ;; Return value:  Size  Location     Type
  1067 ;;                  1    wreg      void 
  1068 ;; Registers used:
  1069 ;;		wreg, status,2, status,0, btemp+1, pclath, cstack
  1070 ;; Tracked objects:
  1071 ;;		On entry : 0/0
  1072 ;;		On exit  : 0/0
  1073 ;;		Unchanged: 0/0
  1074 ;; Data sizes:     COMMON   BANK0   BANK1   BANK3   BANK2
  1075 ;;      Params:         0       0       0       0       0
  1076 ;;      Locals:         0       0       0       0       0
  1077 ;;      Temps:          0       0       5       0       0
  1078 ;;      Totals:         0       0       5       0       0
  1079 ;;Total ram usage:        5 bytes
  1080 ;; Hardware stack levels used: 1
  1081 ;; Hardware stack levels required when called: 3
  1082 ;; This function calls:
  1083 ;;		_map
  1084 ;; This function is called by:
  1085 ;;		Interrupt level 1
  1086 ;; This function uses a non-reentrant model
  1087 ;;
  1088                           
  1089  0F9E                     _isr:	
  1090                           ;psect for function _isr
  1091                           
  1092  0F9E                     i1l1715:
  1093                           
  1094                           ;lab09_pre_pgr.c: 125:     if(PIR1bits.ADIF){
  1095  0F9E  1283               	bcf	3,5	;RP0=0, select bank0
  1096  0F9F  1303               	bcf	3,6	;RP1=0, select bank0
  1097  0FA0  1F0C               	btfss	12,6	;volatile
  1098  0FA1  2FA3               	goto	u240_21
  1099  0FA2  2FA4               	goto	u240_20
  1100  0FA3                     u240_21:
  1101  0FA3  2FF5               	goto	i1l72
  1102  0FA4                     u240_20:
  1103  0FA4                     i1l1717:
  1104                           
  1105                           ;lab09_pre_pgr.c: 126:         if(ADCON0bits.CHS == 0){
  1106  0FA4  0C1F               	rrf	31,w	;volatile
  1107  0FA5  1683               	bsf	3,5	;RP0=1, select bank1
  1108  0FA6  1303               	bcf	3,6	;RP1=0, select bank1
  1109  0FA7  00A0               	movwf	??_isr^(0+128)
  1110  0FA8  0C20               	rrf	??_isr^(0+128),w
  1111  0FA9  390F               	andlw	15
  1112  0FAA  3A00               	xorlw	0
  1113  0FAB  1D03               	skipz
  1114  0FAC  2FAE               	goto	u241_21
  1115  0FAD  2FAF               	goto	u241_20
  1116  0FAE                     u241_21:
  1117  0FAE  2FF3               	goto	i1l1725
  1118  0FAF                     u241_20:
  1119  0FAF                     i1l1719:
  1120                           
  1121                           ;lab09_pre_pgr.c: 127:             CCPR = map(ADRESH, 0, 255, 30, 63);
  1122  0FAF  1283               	bcf	3,5	;RP0=0, select bank0
  1123  0FB0  1303               	bcf	3,6	;RP1=0, select bank0
  1124  0FB1  01E1               	clrf	map@x0
  1125  0FB2  30FF               	movlw	255
  1126  0FB3  1683               	bsf	3,5	;RP0=1, select bank1
  1127  0FB4  1303               	bcf	3,6	;RP1=0, select bank1
  1128  0FB5  00A0               	movwf	??_isr^(0+128)
  1129  0FB6  0820               	movf	??_isr^(0+128),w
  1130  0FB7  1283               	bcf	3,5	;RP0=0, select bank0
  1131  0FB8  1303               	bcf	3,6	;RP1=0, select bank0
  1132  0FB9  00E2               	movwf	map@x1
  1133  0FBA  301E               	movlw	30
  1134  0FBB  00E3               	movwf	map@y0
  1135  0FBC  3000               	movlw	0
  1136  0FBD  00E4               	movwf	map@y0+1
  1137  0FBE  303F               	movlw	63
  1138  0FBF  00E5               	movwf	map@y1
  1139  0FC0  3000               	movlw	0
  1140  0FC1  00E6               	movwf	map@y1+1
  1141  0FC2  081E               	movf	30,w	;volatile
  1142  0FC3  120A  118A  26C0  120A  158A  	fcall	_map
  1143  0FC8  1283               	bcf	3,5	;RP0=0, select bank0
  1144  0FC9  1303               	bcf	3,6	;RP1=0, select bank0
  1145  0FCA  0862               	movf	?_map+1,w
  1146  0FCB  00ED               	movwf	_CCPR+1
  1147  0FCC  0861               	movf	?_map,w
  1148  0FCD  00EC               	movwf	_CCPR
  1149  0FCE                     i1l1721:
  1150                           
  1151                           ;lab09_pre_pgr.c: 128:             CCPR1L = (uint8_t)(CCPR>>2);
  1152  0FCE  086D               	movf	_CCPR+1,w
  1153  0FCF  1683               	bsf	3,5	;RP0=1, select bank1
  1154  0FD0  1303               	bcf	3,6	;RP1=0, select bank1
  1155  0FD1  00A1               	movwf	(??_isr^(0+128)+1)
  1156  0FD2  1283               	bcf	3,5	;RP0=0, select bank0
  1157  0FD3  1303               	bcf	3,6	;RP1=0, select bank0
  1158  0FD4  086C               	movf	_CCPR,w
  1159  0FD5  1683               	bsf	3,5	;RP0=1, select bank1
  1160  0FD6  1303               	bcf	3,6	;RP1=0, select bank1
  1161  0FD7  00A0               	movwf	??_isr^(0+128)
  1162  0FD8  1003               	clrc
  1163  0FD9  0CA1               	rrf	(??_isr^(0+128)+1),f
  1164  0FDA  0CA0               	rrf	??_isr^(0+128),f
  1165  0FDB  1003               	clrc
  1166  0FDC  0CA1               	rrf	(??_isr^(0+128)+1),f
  1167  0FDD  0CA0               	rrf	??_isr^(0+128),f
  1168  0FDE  0820               	movf	??_isr^(0+128),w
  1169  0FDF  1283               	bcf	3,5	;RP0=0, select bank0
  1170  0FE0  1303               	bcf	3,6	;RP1=0, select bank0
  1171  0FE1  0095               	movwf	21	;volatile
  1172  0FE2                     i1l1723:
  1173                           
  1174                           ;lab09_pre_pgr.c: 129:             CCP1CONbits.DC1B = CCPR & 0b11;
  1175  0FE2  086C               	movf	_CCPR,w
  1176  0FE3  3903               	andlw	3
  1177  0FE4  1683               	bsf	3,5	;RP0=1, select bank1
  1178  0FE5  1303               	bcf	3,6	;RP1=0, select bank1
  1179  0FE6  00A0               	movwf	??_isr^(0+128)
  1180  0FE7  0EA0               	swapf	??_isr^(0+128),f
  1181  0FE8  1283               	bcf	3,5	;RP0=0, select bank0
  1182  0FE9  1303               	bcf	3,6	;RP1=0, select bank0
  1183  0FEA  0817               	movf	23,w	;volatile
  1184  0FEB  1683               	bsf	3,5	;RP0=1, select bank1
  1185  0FEC  1303               	bcf	3,6	;RP1=0, select bank1
  1186  0FED  0620               	xorwf	??_isr^(0+128),w
  1187  0FEE  39CF               	andlw	-49
  1188  0FEF  0620               	xorwf	??_isr^(0+128),w
  1189  0FF0  1283               	bcf	3,5	;RP0=0, select bank0
  1190  0FF1  1303               	bcf	3,6	;RP1=0, select bank0
  1191  0FF2  0097               	movwf	23	;volatile
  1192  0FF3                     i1l1725:
  1193                           
  1194                           ;lab09_pre_pgr.c: 131:         PIR1bits.ADIF = 0;
  1195  0FF3  1283               	bcf	3,5	;RP0=0, select bank0
  1196  0FF4  130C               	bcf	12,6	;volatile
  1197  0FF5                     i1l72:
  1198  0FF5  1683               	bsf	3,5	;RP0=1, select bank1
  1199  0FF6  1303               	bcf	3,6	;RP1=0, select bank1
  1200  0FF7  0824               	movf	(??_isr+4)^(0+128),w
  1201  0FF8  00FF               	movwf	btemp+1
  1202  0FF9  0823               	movf	(??_isr+3)^(0+128),w
  1203  0FFA  008A               	movwf	10
  1204  0FFB  0E22               	swapf	(??_isr+2)^(0+128),w
  1205  0FFC  0083               	movwf	3
  1206  0FFD  0EFE               	swapf	btemp,f
  1207  0FFE  0E7E               	swapf	btemp,w
  1208  0FFF  0009               	retfie
  1209  1000                     __end_of_isr:
  1210                           
  1211                           	psect	intentry
  1212  0004                     __pintentry:	
  1213                           ;incstack = 0
  1214                           ; Regs used in _isr: [wreg+status,2+status,0+btemp+1+pclath+cstack]
  1215                           
  1216  0004                     interrupt_function:
  1217  007E                     saved_w	set	btemp
  1218  0004  00FE               	movwf	btemp
  1219  0005  0E03               	swapf	3,w
  1220  0006  1683               	bsf	3,5	;RP0=1, select bank1
  1221  0007  1303               	bcf	3,6	;RP1=0, select bank1
  1222  0008  00A2               	movwf	(??_isr+2)^(0+128)
  1223  0009  080A               	movf	10,w
  1224  000A  00A3               	movwf	(??_isr+3)^(0+128)
  1225  000B  087F               	movf	btemp+1,w
  1226  000C  00A4               	movwf	(??_isr+4)^(0+128)
  1227  000D  120A  158A  2F9E   	ljmp	_isr
  1228                           
  1229                           	psect	text9
  1230  06C0                     __ptext9:	
  1231 ;; *************** function _map *****************
  1232 ;; Defined at:
  1233 ;;		line 120 in file "lab09_pre_pgr.c"
  1234 ;; Parameters:    Size  Location     Type
  1235 ;;  x               1    wreg     unsigned char 
  1236 ;;  x0              1   65[BANK0 ] unsigned char 
  1237 ;;  x1              1   66[BANK0 ] unsigned char 
  1238 ;;  y0              2   67[BANK0 ] unsigned short 
  1239 ;;  y1              2   69[BANK0 ] unsigned short 
  1240 ;; Auto vars:     Size  Location     Type
  1241 ;;  x               1   75[BANK0 ] unsigned char 
  1242 ;; Return value:  Size  Location     Type
  1243 ;;                  2   65[BANK0 ] unsigned short 
  1244 ;; Registers used:
  1245 ;;		wreg, status,2, status,0, btemp+1, pclath, cstack
  1246 ;; Tracked objects:
  1247 ;;		On entry : 0/0
  1248 ;;		On exit  : 0/0
  1249 ;;		Unchanged: 0/0
  1250 ;; Data sizes:     COMMON   BANK0   BANK1   BANK3   BANK2
  1251 ;;      Params:         0       6       0       0       0
  1252 ;;      Locals:         0       1       0       0       0
  1253 ;;      Temps:          0       4       0       0       0
  1254 ;;      Totals:         0      11       0       0       0
  1255 ;;Total ram usage:       11 bytes
  1256 ;; Hardware stack levels used: 1
  1257 ;; Hardware stack levels required when called: 2
  1258 ;; This function calls:
  1259 ;;		___fladd
  1260 ;;		___flmul
  1261 ;;		___fltol
  1262 ;;		___lwdiv
  1263 ;;		___xxtofl
  1264 ;; This function is called by:
  1265 ;;		_isr
  1266 ;; This function uses a non-reentrant model
  1267 ;;
  1268                           
  1269  06C0                     _map:	
  1270                           ;psect for function _map
  1271                           
  1272                           
  1273                           ;incstack = 0
  1274                           ; Regs used in _map: [wreg+status,2+status,0+btemp+1+pclath+cstack]
  1275                           ;map@x stored from wreg
  1276  06C0  1283               	bcf	3,5	;RP0=0, select bank0
  1277  06C1  1303               	bcf	3,6	;RP1=0, select bank0
  1278  06C2  00EB               	movwf	map@x
  1279  06C3                     i1l1711:
  1280                           
  1281                           ;lab09_pre_pgr.c: 121:     return (unsigned short)(y0+((float)((y1-y0)/(x1-x0)))*(x-x0))
      +                          ;
  1282  06C3  0863               	movf	map@y0,w
  1283  06C4  00F8               	movwf	___xxtofl@val
  1284  06C5  0864               	movf	map@y0+1,w
  1285  06C6  00F9               	movwf	___xxtofl@val+1
  1286  06C7  01FA               	clrf	___xxtofl@val+2
  1287  06C8  01FB               	clrf	___xxtofl@val+3
  1288  06C9  3000               	movlw	0
  1289  06CA  120A  118A  2604  120A  118A  	fcall	___xxtofl
  1290  06CF  087B               	movf	?___xxtofl+3,w
  1291  06D0  1283               	bcf	3,5	;RP0=0, select bank0
  1292  06D1  1303               	bcf	3,6	;RP1=0, select bank0
  1293  06D2  00CB               	movwf	___fladd@a+3
  1294  06D3  087A               	movf	?___xxtofl+2,w
  1295  06D4  00CA               	movwf	___fladd@a+2
  1296  06D5  0879               	movf	?___xxtofl+1,w
  1297  06D6  00C9               	movwf	___fladd@a+1
  1298  06D7  0878               	movf	?___xxtofl,w
  1299  06D8  00C8               	movwf	___fladd@a
  1300  06D9  0863               	movf	map@y0,w
  1301  06DA  0265               	subwf	map@y1,w
  1302  06DB  00F2               	movwf	___lwdiv@dividend
  1303  06DC  0864               	movf	map@y0+1,w
  1304  06DD  1C03               	skipc
  1305  06DE  0A64               	incf	map@y0+1,w
  1306  06DF  0266               	subwf	map@y1+1,w
  1307  06E0  00F3               	movwf	___lwdiv@dividend+1
  1308  06E1  0861               	movf	map@x0,w
  1309  06E2  0262               	subwf	map@x1,w
  1310  06E3  00F0               	movwf	___lwdiv@divisor
  1311  06E4  01F1               	clrf	___lwdiv@divisor+1
  1312  06E5  1C03               	skipc
  1313  06E6  03F1               	decf	___lwdiv@divisor+1,f
  1314  06E7  120A  158A  275A  120A  118A  	fcall	___lwdiv
  1315  06EC  0870               	movf	?___lwdiv,w
  1316  06ED  1283               	bcf	3,5	;RP0=0, select bank0
  1317  06EE  1303               	bcf	3,6	;RP1=0, select bank0
  1318  06EF  00E7               	movwf	??_map
  1319  06F0  0871               	movf	?___lwdiv+1,w
  1320  06F1  00E8               	movwf	??_map+1
  1321  06F2  01E9               	clrf	??_map+2
  1322  06F3  01EA               	clrf	??_map+3
  1323  06F4  086A               	movf	??_map+3,w
  1324  06F5  00FB               	movwf	___xxtofl@val+3
  1325  06F6  0869               	movf	??_map+2,w
  1326  06F7  00FA               	movwf	___xxtofl@val+2
  1327  06F8  0868               	movf	??_map+1,w
  1328  06F9  00F9               	movwf	___xxtofl@val+1
  1329  06FA  0867               	movf	??_map,w
  1330  06FB  00F8               	movwf	___xxtofl@val
  1331  06FC  3000               	movlw	0
  1332  06FD  120A  118A  2604  120A  118A  	fcall	___xxtofl
  1333  0702  087B               	movf	?___xxtofl+3,w
  1334  0703  1283               	bcf	3,5	;RP0=0, select bank0
  1335  0704  1303               	bcf	3,6	;RP1=0, select bank0
  1336  0705  00B1               	movwf	___flmul@a+3
  1337  0706  087A               	movf	?___xxtofl+2,w
  1338  0707  00B0               	movwf	___flmul@a+2
  1339  0708  0879               	movf	?___xxtofl+1,w
  1340  0709  00AF               	movwf	___flmul@a+1
  1341  070A  0878               	movf	?___xxtofl,w
  1342  070B  00AE               	movwf	___flmul@a
  1343  070C  0861               	movf	map@x0,w
  1344  070D  026B               	subwf	map@x,w
  1345  070E  00F8               	movwf	___xxtofl@val
  1346  070F  01F9               	clrf	___xxtofl@val+1
  1347  0710  1C03               	skipc
  1348  0711  03F9               	decf	___xxtofl@val+1,f
  1349  0712  01FA               	clrf	___xxtofl@val+2
  1350  0713  1BF9               	btfsc	___xxtofl@val+1,7
  1351  0714  03FA               	decf	___xxtofl@val+2,f
  1352  0715  087A               	movf	___xxtofl@val+2,w
  1353  0716  00FB               	movwf	___xxtofl@val+3
  1354  0717  3001               	movlw	1
  1355  0718  120A  118A  2604  120A  118A  	fcall	___xxtofl
  1356  071D  087B               	movf	?___xxtofl+3,w
  1357  071E  1283               	bcf	3,5	;RP0=0, select bank0
  1358  071F  1303               	bcf	3,6	;RP1=0, select bank0
  1359  0720  00AD               	movwf	___flmul@b+3
  1360  0721  087A               	movf	?___xxtofl+2,w
  1361  0722  00AC               	movwf	___flmul@b+2
  1362  0723  0879               	movf	?___xxtofl+1,w
  1363  0724  00AB               	movwf	___flmul@b+1
  1364  0725  0878               	movf	?___xxtofl,w
  1365  0726  00AA               	movwf	___flmul@b
  1366  0727  120A  118A  201B  120A  118A  	fcall	___flmul
  1367  072C  1283               	bcf	3,5	;RP0=0, select bank0
  1368  072D  1303               	bcf	3,6	;RP1=0, select bank0
  1369  072E  082D               	movf	?___flmul+3,w
  1370  072F  00C7               	movwf	___fladd@b+3
  1371  0730  082C               	movf	?___flmul+2,w
  1372  0731  00C6               	movwf	___fladd@b+2
  1373  0732  082B               	movf	?___flmul+1,w
  1374  0733  00C5               	movwf	___fladd@b+1
  1375  0734  082A               	movf	?___flmul,w
  1376  0735  00C4               	movwf	___fladd@b
  1377  0736  120A  118A  237C  120A  118A  	fcall	___fladd
  1378  073B  1283               	bcf	3,5	;RP0=0, select bank0
  1379  073C  1303               	bcf	3,6	;RP1=0, select bank0
  1380  073D  0847               	movf	?___fladd+3,w
  1381  073E  00DB               	movwf	___fltol@f1+3
  1382  073F  0846               	movf	?___fladd+2,w
  1383  0740  00DA               	movwf	___fltol@f1+2
  1384  0741  0845               	movf	?___fladd+1,w
  1385  0742  00D9               	movwf	___fltol@f1+1
  1386  0743  0844               	movf	?___fladd,w
  1387  0744  00D8               	movwf	___fltol@f1
  1388  0745  120A  118A  2751  120A  118A  	fcall	___fltol
  1389  074A  1283               	bcf	3,5	;RP0=0, select bank0
  1390  074B  1303               	bcf	3,6	;RP1=0, select bank0
  1391  074C  0859               	movf	?___fltol+1,w
  1392  074D  00E2               	movwf	?_map+1
  1393  074E  0858               	movf	?___fltol,w
  1394  074F  00E1               	movwf	?_map
  1395  0750                     i1l65:
  1396  0750  0008               	return
  1397  0751                     __end_of_map:
  1398                           
  1399                           	psect	text10
  1400  0604                     __ptext10:	
  1401 ;; *************** function ___xxtofl *****************
  1402 ;; Defined at:
  1403 ;;		line 10 in file "C:\Program Files\Microchip\xc8\v2.36\pic\sources\c90\common\xxtofl.c"
  1404 ;; Parameters:    Size  Location     Type
  1405 ;;  sign            1    wreg     unsigned char 
  1406 ;;  val             4    8[COMMON] long 
  1407 ;; Auto vars:     Size  Location     Type
  1408 ;;  sign            1    4[BANK0 ] unsigned char 
  1409 ;;  arg             4    6[BANK0 ] unsigned long 
  1410 ;;  exp             1    5[BANK0 ] unsigned char 
  1411 ;; Return value:  Size  Location     Type
  1412 ;;                  4    8[COMMON] unsigned char 
  1413 ;; Registers used:
  1414 ;;		wreg, status,2, status,0
  1415 ;; Tracked objects:
  1416 ;;		On entry : 0/0
  1417 ;;		On exit  : 0/0
  1418 ;;		Unchanged: 0/0
  1419 ;; Data sizes:     COMMON   BANK0   BANK1   BANK3   BANK2
  1420 ;;      Params:         4       0       0       0       0
  1421 ;;      Locals:         0       6       0       0       0
  1422 ;;      Temps:          0       4       0       0       0
  1423 ;;      Totals:         4      10       0       0       0
  1424 ;;Total ram usage:       14 bytes
  1425 ;; Hardware stack levels used: 1
  1426 ;; This function calls:
  1427 ;;		Nothing
  1428 ;; This function is called by:
  1429 ;;		_map
  1430 ;; This function uses a non-reentrant model
  1431 ;;
  1432                           
  1433  0604                     ___xxtofl:	
  1434                           ;psect for function ___xxtofl
  1435                           
  1436                           
  1437                           ;incstack = 0
  1438                           ; Regs used in ___xxtofl: [wreg+status,2+status,0]
  1439                           ;___xxtofl@sign stored from wreg
  1440  0604  1283               	bcf	3,5	;RP0=0, select bank0
  1441  0605  1303               	bcf	3,6	;RP1=0, select bank0
  1442  0606  00A4               	movwf	___xxtofl@sign
  1443  0607                     i1l1619:
  1444  0607  0824               	movf	___xxtofl@sign,w
  1445  0608  1903               	btfsc	3,2
  1446  0609  2E0B               	goto	u225_21
  1447  060A  2E0C               	goto	u225_20
  1448  060B                     u225_21:
  1449  060B  2E20               	goto	i1l1625
  1450  060C                     u225_20:
  1451  060C                     i1l1621:
  1452  060C  1FFB               	btfss	___xxtofl@val+3,7
  1453  060D  2E0F               	goto	u226_21
  1454  060E  2E10               	goto	u226_20
  1455  060F                     u226_21:
  1456  060F  2E20               	goto	i1l1625
  1457  0610                     u226_20:
  1458  0610                     i1l1623:
  1459  0610  0978               	comf	___xxtofl@val,w
  1460  0611  00A6               	movwf	___xxtofl@arg
  1461  0612  0979               	comf	___xxtofl@val+1,w
  1462  0613  00A7               	movwf	___xxtofl@arg+1
  1463  0614  097A               	comf	___xxtofl@val+2,w
  1464  0615  00A8               	movwf	___xxtofl@arg+2
  1465  0616  097B               	comf	___xxtofl@val+3,w
  1466  0617  00A9               	movwf	___xxtofl@arg+3
  1467  0618  0AA6               	incf	___xxtofl@arg,f
  1468  0619  1903               	skipnz
  1469  061A  0AA7               	incf	___xxtofl@arg+1,f
  1470  061B  1903               	skipnz
  1471  061C  0AA8               	incf	___xxtofl@arg+2,f
  1472  061D  1903               	skipnz
  1473  061E  0AA9               	incf	___xxtofl@arg+3,f
  1474  061F  2E28               	goto	i1l600
  1475  0620                     i1l1625:
  1476  0620  087B               	movf	___xxtofl@val+3,w
  1477  0621  00A9               	movwf	___xxtofl@arg+3
  1478  0622  087A               	movf	___xxtofl@val+2,w
  1479  0623  00A8               	movwf	___xxtofl@arg+2
  1480  0624  0879               	movf	___xxtofl@val+1,w
  1481  0625  00A7               	movwf	___xxtofl@arg+1
  1482  0626  0878               	movf	___xxtofl@val,w
  1483  0627  00A6               	movwf	___xxtofl@arg
  1484  0628                     i1l600:
  1485  0628  087B               	movf	___xxtofl@val+3,w
  1486  0629  047A               	iorwf	___xxtofl@val+2,w
  1487  062A  0479               	iorwf	___xxtofl@val+1,w
  1488  062B  0478               	iorwf	___xxtofl@val,w
  1489  062C  1D03               	skipz
  1490  062D  2E2F               	goto	u227_21
  1491  062E  2E30               	goto	u227_20
  1492  062F                     u227_21:
  1493  062F  2E39               	goto	i1l1631
  1494  0630                     u227_20:
  1495  0630                     i1l1627:
  1496  0630  3000               	movlw	0
  1497  0631  00FB               	movwf	?___xxtofl+3
  1498  0632  3000               	movlw	0
  1499  0633  00FA               	movwf	?___xxtofl+2
  1500  0634  3000               	movlw	0
  1501  0635  00F9               	movwf	?___xxtofl+1
  1502  0636  3000               	movlw	0
  1503  0637  00F8               	movwf	?___xxtofl
  1504  0638  2EBF               	goto	i1l602
  1505  0639                     i1l1631:
  1506  0639  3096               	movlw	150
  1507  063A  00A0               	movwf	??___xxtofl
  1508  063B  0820               	movf	??___xxtofl,w
  1509  063C  00A5               	movwf	___xxtofl@exp
  1510  063D  2E4B               	goto	i1l1635
  1511  063E                     i1l1633:
  1512  063E  3001               	movlw	1
  1513  063F  00A0               	movwf	??___xxtofl
  1514  0640  0820               	movf	??___xxtofl,w
  1515  0641  07A5               	addwf	___xxtofl@exp,f
  1516  0642  3001               	movlw	1
  1517  0643                     u228_25:
  1518  0643  1003               	clrc
  1519  0644  0CA9               	rrf	___xxtofl@arg+3,f
  1520  0645  0CA8               	rrf	___xxtofl@arg+2,f
  1521  0646  0CA7               	rrf	___xxtofl@arg+1,f
  1522  0647  0CA6               	rrf	___xxtofl@arg,f
  1523  0648  3EFF               	addlw	-1
  1524  0649  1D03               	skipz
  1525  064A  2E43               	goto	u228_25
  1526  064B                     i1l1635:
  1527  064B  30FE               	movlw	254
  1528  064C  0529               	andwf	___xxtofl@arg+3,w
  1529  064D  1D03               	btfss	3,2
  1530  064E  2E50               	goto	u229_21
  1531  064F  2E51               	goto	u229_20
  1532  0650                     u229_21:
  1533  0650  2E3E               	goto	i1l1633
  1534  0651                     u229_20:
  1535  0651  2E6D               	goto	i1l606
  1536  0652                     i1l1637:
  1537  0652  3001               	movlw	1
  1538  0653  00A0               	movwf	??___xxtofl
  1539  0654  0820               	movf	??___xxtofl,w
  1540  0655  07A5               	addwf	___xxtofl@exp,f
  1541  0656                     i1l1639:
  1542  0656  3001               	movlw	1
  1543  0657  07A6               	addwf	___xxtofl@arg,f
  1544  0658  3000               	movlw	0
  1545  0659  1803               	skipnc
  1546  065A  3001               	movlw	1
  1547  065B  07A7               	addwf	___xxtofl@arg+1,f
  1548  065C  3000               	movlw	0
  1549  065D  1803               	skipnc
  1550  065E  3001               	movlw	1
  1551  065F  07A8               	addwf	___xxtofl@arg+2,f
  1552  0660  3000               	movlw	0
  1553  0661  1803               	skipnc
  1554  0662  3001               	movlw	1
  1555  0663  07A9               	addwf	___xxtofl@arg+3,f
  1556  0664                     i1l1641:
  1557  0664  3001               	movlw	1
  1558  0665                     u230_25:
  1559  0665  1003               	clrc
  1560  0666  0CA9               	rrf	___xxtofl@arg+3,f
  1561  0667  0CA8               	rrf	___xxtofl@arg+2,f
  1562  0668  0CA7               	rrf	___xxtofl@arg+1,f
  1563  0669  0CA6               	rrf	___xxtofl@arg,f
  1564  066A  3EFF               	addlw	-1
  1565  066B  1D03               	skipz
  1566  066C  2E65               	goto	u230_25
  1567  066D                     i1l606:
  1568  066D  30FF               	movlw	255
  1569  066E  0529               	andwf	___xxtofl@arg+3,w
  1570  066F  1D03               	btfss	3,2
  1571  0670  2E72               	goto	u231_21
  1572  0671  2E73               	goto	u231_20
  1573  0672                     u231_21:
  1574  0672  2E52               	goto	i1l1637
  1575  0673                     u231_20:
  1576  0673  2E7F               	goto	i1l1645
  1577  0674                     i1l1643:
  1578  0674  3001               	movlw	1
  1579  0675  02A5               	subwf	___xxtofl@exp,f
  1580  0676  3001               	movlw	1
  1581  0677  00A0               	movwf	??___xxtofl
  1582  0678                     u232_25:
  1583  0678  1003               	clrc
  1584  0679  0DA6               	rlf	___xxtofl@arg,f
  1585  067A  0DA7               	rlf	___xxtofl@arg+1,f
  1586  067B  0DA8               	rlf	___xxtofl@arg+2,f
  1587  067C  0DA9               	rlf	___xxtofl@arg+3,f
  1588  067D  0BA0               	decfsz	??___xxtofl,f
  1589  067E  2E78               	goto	u232_25
  1590  067F                     i1l1645:
  1591  067F  1BA8               	btfsc	___xxtofl@arg+2,7
  1592  0680  2E82               	goto	u233_21
  1593  0681  2E83               	goto	u233_20
  1594  0682                     u233_21:
  1595  0682  2E89               	goto	i1l613
  1596  0683                     u233_20:
  1597  0683                     i1l1647:
  1598  0683  3002               	movlw	2
  1599  0684  0225               	subwf	___xxtofl@exp,w
  1600  0685  1803               	skipnc
  1601  0686  2E88               	goto	u234_21
  1602  0687  2E89               	goto	u234_20
  1603  0688                     u234_21:
  1604  0688  2E74               	goto	i1l1643
  1605  0689                     u234_20:
  1606  0689                     i1l613:
  1607  0689  1825               	btfsc	___xxtofl@exp,0
  1608  068A  2E8C               	goto	u235_21
  1609  068B  2E8D               	goto	u235_20
  1610  068C                     u235_21:
  1611  068C  2E95               	goto	i1l614
  1612  068D                     u235_20:
  1613  068D                     i1l1649:
  1614  068D  30FF               	movlw	255
  1615  068E  05A6               	andwf	___xxtofl@arg,f
  1616  068F  30FF               	movlw	255
  1617  0690  05A7               	andwf	___xxtofl@arg+1,f
  1618  0691  307F               	movlw	127
  1619  0692  05A8               	andwf	___xxtofl@arg+2,f
  1620  0693  30FF               	movlw	255
  1621  0694  05A9               	andwf	___xxtofl@arg+3,f
  1622  0695                     i1l614:
  1623  0695  1003               	clrc
  1624  0696  0CA5               	rrf	___xxtofl@exp,f
  1625  0697                     i1l1651:
  1626  0697  0825               	movf	___xxtofl@exp,w
  1627  0698  00A0               	movwf	??___xxtofl
  1628  0699  01A1               	clrf	??___xxtofl+1
  1629  069A  01A2               	clrf	??___xxtofl+2
  1630  069B  01A3               	clrf	??___xxtofl+3
  1631  069C  3018               	movlw	24
  1632  069D                     u236_25:
  1633  069D  1003               	clrc
  1634  069E  0DA0               	rlf	??___xxtofl,f
  1635  069F  0DA1               	rlf	??___xxtofl+1,f
  1636  06A0  0DA2               	rlf	??___xxtofl+2,f
  1637  06A1  0DA3               	rlf	??___xxtofl+3,f
  1638  06A2                     u236_20:
  1639  06A2  3EFF               	addlw	-1
  1640  06A3  1D03               	skipz
  1641  06A4  2E9D               	goto	u236_25
  1642  06A5  0820               	movf	??___xxtofl,w
  1643  06A6  04A6               	iorwf	___xxtofl@arg,f
  1644  06A7  0821               	movf	??___xxtofl+1,w
  1645  06A8  04A7               	iorwf	___xxtofl@arg+1,f
  1646  06A9  0822               	movf	??___xxtofl+2,w
  1647  06AA  04A8               	iorwf	___xxtofl@arg+2,f
  1648  06AB  0823               	movf	??___xxtofl+3,w
  1649  06AC  04A9               	iorwf	___xxtofl@arg+3,f
  1650  06AD                     i1l1653:
  1651  06AD  0824               	movf	___xxtofl@sign,w
  1652  06AE  1903               	btfsc	3,2
  1653  06AF  2EB1               	goto	u237_21
  1654  06B0  2EB2               	goto	u237_20
  1655  06B1                     u237_21:
  1656  06B1  2EB7               	goto	i1l1659
  1657  06B2                     u237_20:
  1658  06B2                     i1l1655:
  1659  06B2  1FFB               	btfss	___xxtofl@val+3,7
  1660  06B3  2EB5               	goto	u238_21
  1661  06B4  2EB6               	goto	u238_20
  1662  06B5                     u238_21:
  1663  06B5  2EB7               	goto	i1l1659
  1664  06B6                     u238_20:
  1665  06B6                     i1l1657:
  1666  06B6  17A9               	bsf	___xxtofl@arg+3,7
  1667  06B7                     i1l1659:
  1668  06B7  0829               	movf	___xxtofl@arg+3,w
  1669  06B8  00FB               	movwf	?___xxtofl+3
  1670  06B9  0828               	movf	___xxtofl@arg+2,w
  1671  06BA  00FA               	movwf	?___xxtofl+2
  1672  06BB  0827               	movf	___xxtofl@arg+1,w
  1673  06BC  00F9               	movwf	?___xxtofl+1
  1674  06BD  0826               	movf	___xxtofl@arg,w
  1675  06BE  00F8               	movwf	?___xxtofl
  1676  06BF                     i1l602:
  1677  06BF  0008               	return
  1678  06C0                     __end_of___xxtofl:
  1679                           
  1680                           	psect	text11
  1681  0F5A                     __ptext11:	
  1682 ;; *************** function ___lwdiv *****************
  1683 ;; Defined at:
  1684 ;;		line 5 in file "C:\Program Files\Microchip\xc8\v2.36\pic\sources\c90\common\lwdiv.c"
  1685 ;; Parameters:    Size  Location     Type
  1686 ;;  divisor         2    0[COMMON] unsigned int 
  1687 ;;  dividend        2    2[COMMON] unsigned int 
  1688 ;; Auto vars:     Size  Location     Type
  1689 ;;  quotient        2    5[COMMON] unsigned int 
  1690 ;;  counter         1    7[COMMON] unsigned char 
  1691 ;; Return value:  Size  Location     Type
  1692 ;;                  2    0[COMMON] unsigned int 
  1693 ;; Registers used:
  1694 ;;		wreg, status,2, status,0
  1695 ;; Tracked objects:
  1696 ;;		On entry : 0/0
  1697 ;;		On exit  : 0/0
  1698 ;;		Unchanged: 0/0
  1699 ;; Data sizes:     COMMON   BANK0   BANK1   BANK3   BANK2
  1700 ;;      Params:         4       0       0       0       0
  1701 ;;      Locals:         3       0       0       0       0
  1702 ;;      Temps:          1       0       0       0       0
  1703 ;;      Totals:         8       0       0       0       0
  1704 ;;Total ram usage:        8 bytes
  1705 ;; Hardware stack levels used: 1
  1706 ;; This function calls:
  1707 ;;		Nothing
  1708 ;; This function is called by:
  1709 ;;		_map
  1710 ;; This function uses a non-reentrant model
  1711 ;;
  1712                           
  1713  0F5A                     ___lwdiv:	
  1714                           ;psect for function ___lwdiv
  1715                           
  1716  0F5A                     i1l1259:	
  1717                           ;incstack = 0
  1718                           ; Regs used in ___lwdiv: [wreg+status,2+status,0]
  1719                           
  1720  0F5A  01F5               	clrf	___lwdiv@quotient
  1721  0F5B  01F6               	clrf	___lwdiv@quotient+1
  1722  0F5C                     i1l1261:
  1723  0F5C  0870               	movf	___lwdiv@divisor,w
  1724  0F5D  0471               	iorwf	___lwdiv@divisor+1,w
  1725  0F5E  1903               	btfsc	3,2
  1726  0F5F  2F61               	goto	u135_21
  1727  0F60  2F62               	goto	u135_20
  1728  0F61                     u135_21:
  1729  0F61  2F99               	goto	i1l1281
  1730  0F62                     u135_20:
  1731  0F62                     i1l1263:
  1732  0F62  01F7               	clrf	___lwdiv@counter
  1733  0F63  0AF7               	incf	___lwdiv@counter,f
  1734  0F64  2F70               	goto	i1l1269
  1735  0F65                     i1l1265:
  1736  0F65  3001               	movlw	1
  1737  0F66                     u136_25:
  1738  0F66  1003               	clrc
  1739  0F67  0DF0               	rlf	___lwdiv@divisor,f
  1740  0F68  0DF1               	rlf	___lwdiv@divisor+1,f
  1741  0F69  3EFF               	addlw	-1
  1742  0F6A  1D03               	skipz
  1743  0F6B  2F66               	goto	u136_25
  1744  0F6C                     i1l1267:
  1745  0F6C  3001               	movlw	1
  1746  0F6D  00F4               	movwf	??___lwdiv
  1747  0F6E  0874               	movf	??___lwdiv,w
  1748  0F6F  07F7               	addwf	___lwdiv@counter,f
  1749  0F70                     i1l1269:
  1750  0F70  1FF1               	btfss	___lwdiv@divisor+1,7
  1751  0F71  2F73               	goto	u137_21
  1752  0F72  2F74               	goto	u137_20
  1753  0F73                     u137_21:
  1754  0F73  2F65               	goto	i1l1265
  1755  0F74                     u137_20:
  1756  0F74                     i1l1271:
  1757  0F74  3001               	movlw	1
  1758  0F75                     u138_25:
  1759  0F75  1003               	clrc
  1760  0F76  0DF5               	rlf	___lwdiv@quotient,f
  1761  0F77  0DF6               	rlf	___lwdiv@quotient+1,f
  1762  0F78  3EFF               	addlw	-1
  1763  0F79  1D03               	skipz
  1764  0F7A  2F75               	goto	u138_25
  1765  0F7B  0871               	movf	___lwdiv@divisor+1,w
  1766  0F7C  0273               	subwf	___lwdiv@dividend+1,w
  1767  0F7D  1D03               	skipz
  1768  0F7E  2F81               	goto	u139_25
  1769  0F7F  0870               	movf	___lwdiv@divisor,w
  1770  0F80  0272               	subwf	___lwdiv@dividend,w
  1771  0F81                     u139_25:
  1772  0F81  1C03               	skipc
  1773  0F82  2F84               	goto	u139_21
  1774  0F83  2F85               	goto	u139_20
  1775  0F84                     u139_21:
  1776  0F84  2F8C               	goto	i1l1277
  1777  0F85                     u139_20:
  1778  0F85                     i1l1273:
  1779  0F85  0870               	movf	___lwdiv@divisor,w
  1780  0F86  02F2               	subwf	___lwdiv@dividend,f
  1781  0F87  0871               	movf	___lwdiv@divisor+1,w
  1782  0F88  1C03               	skipc
  1783  0F89  03F3               	decf	___lwdiv@dividend+1,f
  1784  0F8A  02F3               	subwf	___lwdiv@dividend+1,f
  1785  0F8B                     i1l1275:
  1786  0F8B  1475               	bsf	___lwdiv@quotient,0
  1787  0F8C                     i1l1277:
  1788  0F8C  3001               	movlw	1
  1789  0F8D                     u140_25:
  1790  0F8D  1003               	clrc
  1791  0F8E  0CF1               	rrf	___lwdiv@divisor+1,f
  1792  0F8F  0CF0               	rrf	___lwdiv@divisor,f
  1793  0F90  3EFF               	addlw	-1
  1794  0F91  1D03               	skipz
  1795  0F92  2F8D               	goto	u140_25
  1796  0F93                     i1l1279:
  1797  0F93  3001               	movlw	1
  1798  0F94  02F7               	subwf	___lwdiv@counter,f
  1799  0F95  1D03               	btfss	3,2
  1800  0F96  2F98               	goto	u141_21
  1801  0F97  2F99               	goto	u141_20
  1802  0F98                     u141_21:
  1803  0F98  2F74               	goto	i1l1271
  1804  0F99                     u141_20:
  1805  0F99                     i1l1281:
  1806  0F99  0876               	movf	___lwdiv@quotient+1,w
  1807  0F9A  00F1               	movwf	?___lwdiv+1
  1808  0F9B  0875               	movf	___lwdiv@quotient,w
  1809  0F9C  00F0               	movwf	?___lwdiv
  1810  0F9D                     i1l439:
  1811  0F9D  0008               	return
  1812  0F9E                     __end_of___lwdiv:
  1813                           
  1814                           	psect	text12
  1815  0751                     __ptext12:	
  1816 ;; *************** function ___fltol *****************
  1817 ;; Defined at:
  1818 ;;		line 43 in file "C:\Program Files\Microchip\xc8\v2.36\pic\sources\c90\common\fltol.c"
  1819 ;; Parameters:    Size  Location     Type
  1820 ;;  f1              4   56[BANK0 ] unsigned int 
  1821 ;; Auto vars:     Size  Location     Type
  1822 ;;  exp1            1   13[COMMON] unsigned char 
  1823 ;;  sign1           1   12[COMMON] unsigned char 
  1824 ;; Return value:  Size  Location     Type
  1825 ;;                  4   56[BANK0 ] long 
  1826 ;; Registers used:
  1827 ;;		wreg, status,2, status,0
  1828 ;; Tracked objects:
  1829 ;;		On entry : 0/0
  1830 ;;		On exit  : 0/0
  1831 ;;		Unchanged: 0/0
  1832 ;; Data sizes:     COMMON   BANK0   BANK1   BANK3   BANK2
  1833 ;;      Params:         0       4       0       0       0
  1834 ;;      Locals:         2       0       0       0       0
  1835 ;;      Temps:          0       5       0       0       0
  1836 ;;      Totals:         2       9       0       0       0
  1837 ;;Total ram usage:       11 bytes
  1838 ;; Hardware stack levels used: 1
  1839 ;; This function calls:
  1840 ;;		Nothing
  1841 ;; This function is called by:
  1842 ;;		_map
  1843 ;; This function uses a non-reentrant model
  1844 ;;
  1845                           
  1846  0751                     ___fltol:	
  1847                           ;psect for function ___fltol
  1848                           
  1849  0751                     i1l1223:	
  1850                           ;incstack = 0
  1851                           ; Regs used in ___fltol: [wreg+status,2+status,0]
  1852                           
  1853  0751  1003               	clrc
  1854  0752  1283               	bcf	3,5	;RP0=0, select bank0
  1855  0753  1303               	bcf	3,6	;RP1=0, select bank0
  1856  0754  0D5A               	rlf	___fltol@f1+2,w
  1857  0755  0D5B               	rlf	___fltol@f1+3,w
  1858  0756  00DC               	movwf	??___fltol
  1859  0757  085C               	movf	??___fltol,w
  1860  0758  00FD               	movwf	___fltol@exp1
  1861  0759  087D               	movf	___fltol@exp1,w
  1862  075A  1D03               	btfss	3,2
  1863  075B  2F5D               	goto	u125_21
  1864  075C  2F5E               	goto	u125_20
  1865  075D                     u125_21:
  1866  075D  2F67               	goto	i1l1229
  1867  075E                     u125_20:
  1868  075E                     i1l1225:
  1869  075E  3000               	movlw	0
  1870  075F  00DB               	movwf	?___fltol+3
  1871  0760  3000               	movlw	0
  1872  0761  00DA               	movwf	?___fltol+2
  1873  0762  3000               	movlw	0
  1874  0763  00D9               	movwf	?___fltol+1
  1875  0764  3000               	movlw	0
  1876  0765  00D8               	movwf	?___fltol
  1877  0766  2FCC               	goto	i1l353
  1878  0767                     i1l1229:
  1879  0767  0858               	movf	___fltol@f1,w
  1880  0768  00DC               	movwf	??___fltol
  1881  0769  0859               	movf	___fltol@f1+1,w
  1882  076A  00DD               	movwf	??___fltol+1
  1883  076B  085A               	movf	___fltol@f1+2,w
  1884  076C  00DE               	movwf	??___fltol+2
  1885  076D  085B               	movf	___fltol@f1+3,w
  1886  076E  00DF               	movwf	??___fltol+3
  1887  076F  301F               	movlw	31
  1888  0770                     u126_25:
  1889  0770  1003               	clrc
  1890  0771  0CDF               	rrf	??___fltol+3,f
  1891  0772  0CDE               	rrf	??___fltol+2,f
  1892  0773  0CDD               	rrf	??___fltol+1,f
  1893  0774  0CDC               	rrf	??___fltol,f
  1894  0775                     u126_20:
  1895  0775  3EFF               	addlw	-1
  1896  0776  1D03               	skipz
  1897  0777  2F70               	goto	u126_25
  1898  0778  085C               	movf	??___fltol,w
  1899  0779  00E0               	movwf	??___fltol+4
  1900  077A  0860               	movf	??___fltol+4,w
  1901  077B  00FC               	movwf	___fltol@sign1
  1902  077C                     i1l1231:
  1903  077C  17DA               	bsf	___fltol@f1+2,7
  1904  077D                     i1l1233:
  1905  077D  30FF               	movlw	255
  1906  077E  05D8               	andwf	___fltol@f1,f
  1907  077F  30FF               	movlw	255
  1908  0780  05D9               	andwf	___fltol@f1+1,f
  1909  0781  30FF               	movlw	255
  1910  0782  05DA               	andwf	___fltol@f1+2,f
  1911  0783  3000               	movlw	0
  1912  0784  05DB               	andwf	___fltol@f1+3,f
  1913  0785                     i1l1235:
  1914  0785  3096               	movlw	150
  1915  0786  02FD               	subwf	___fltol@exp1,f
  1916  0787                     i1l1237:
  1917  0787  1FFD               	btfss	___fltol@exp1,7
  1918  0788  2F8A               	goto	u127_21
  1919  0789  2F8B               	goto	u127_20
  1920  078A                     u127_21:
  1921  078A  2FA5               	goto	i1l1247
  1922  078B                     u127_20:
  1923  078B                     i1l1239:
  1924  078B  087D               	movf	___fltol@exp1,w
  1925  078C  3A80               	xorlw	128
  1926  078D  3E97               	addlw	151
  1927  078E  1803               	skipnc
  1928  078F  2F91               	goto	u128_21
  1929  0790  2F92               	goto	u128_20
  1930  0791                     u128_21:
  1931  0791  2F93               	goto	i1l1245
  1932  0792                     u128_20:
  1933  0792  2F5E               	goto	i1l1225
  1934  0793                     i1l1245:
  1935  0793  3001               	movlw	1
  1936  0794                     u129_25:
  1937  0794  1003               	clrc
  1938  0795  0CDB               	rrf	___fltol@f1+3,f
  1939  0796  0CDA               	rrf	___fltol@f1+2,f
  1940  0797  0CD9               	rrf	___fltol@f1+1,f
  1941  0798  0CD8               	rrf	___fltol@f1,f
  1942  0799  3EFF               	addlw	-1
  1943  079A  1D03               	skipz
  1944  079B  2F94               	goto	u129_25
  1945  079C  3001               	movlw	1
  1946  079D  00DC               	movwf	??___fltol
  1947  079E  085C               	movf	??___fltol,w
  1948  079F  07FD               	addwf	___fltol@exp1,f
  1949  07A0  1D03               	btfss	3,2
  1950  07A1  2FA3               	goto	u130_21
  1951  07A2  2FA4               	goto	u130_20
  1952  07A3                     u130_21:
  1953  07A3  2F93               	goto	i1l1245
  1954  07A4                     u130_20:
  1955  07A4  2FBC               	goto	i1l1255
  1956  07A5                     i1l1247:
  1957  07A5  3020               	movlw	32
  1958  07A6  027D               	subwf	___fltol@exp1,w
  1959  07A7  1C03               	skipc
  1960  07A8  2FAA               	goto	u131_21
  1961  07A9  2FAB               	goto	u131_20
  1962  07AA                     u131_21:
  1963  07AA  2FB7               	goto	i1l360
  1964  07AB                     u131_20:
  1965  07AB  2F5E               	goto	i1l1225
  1966  07AC                     i1l1253:
  1967  07AC  3001               	movlw	1
  1968  07AD  00DC               	movwf	??___fltol
  1969  07AE                     u132_25:
  1970  07AE  1003               	clrc
  1971  07AF  0DD8               	rlf	___fltol@f1,f
  1972  07B0  0DD9               	rlf	___fltol@f1+1,f
  1973  07B1  0DDA               	rlf	___fltol@f1+2,f
  1974  07B2  0DDB               	rlf	___fltol@f1+3,f
  1975  07B3  0BDC               	decfsz	??___fltol,f
  1976  07B4  2FAE               	goto	u132_25
  1977  07B5  3001               	movlw	1
  1978  07B6  02FD               	subwf	___fltol@exp1,f
  1979  07B7                     i1l360:
  1980  07B7  087D               	movf	___fltol@exp1,w
  1981  07B8  1D03               	btfss	3,2
  1982  07B9  2FBB               	goto	u133_21
  1983  07BA  2FBC               	goto	u133_20
  1984  07BB                     u133_21:
  1985  07BB  2FAC               	goto	i1l1253
  1986  07BC                     u133_20:
  1987  07BC                     i1l1255:
  1988  07BC  087C               	movf	___fltol@sign1,w
  1989  07BD  1903               	btfsc	3,2
  1990  07BE  2FC0               	goto	u134_21
  1991  07BF  2FC1               	goto	u134_20
  1992  07C0                     u134_21:
  1993  07C0  2FCC               	goto	i1l363
  1994  07C1                     u134_20:
  1995  07C1                     i1l1257:
  1996  07C1  09D8               	comf	___fltol@f1,f
  1997  07C2  09D9               	comf	___fltol@f1+1,f
  1998  07C3  09DA               	comf	___fltol@f1+2,f
  1999  07C4  09DB               	comf	___fltol@f1+3,f
  2000  07C5  0AD8               	incf	___fltol@f1,f
  2001  07C6  1903               	skipnz
  2002  07C7  0AD9               	incf	___fltol@f1+1,f
  2003  07C8  1903               	skipnz
  2004  07C9  0ADA               	incf	___fltol@f1+2,f
  2005  07CA  1903               	skipnz
  2006  07CB  0ADB               	incf	___fltol@f1+3,f
  2007  07CC                     i1l363:
  2008  07CC                     i1l353:
  2009  07CC  0008               	return
  2010  07CD                     __end_of___fltol:
  2011                           
  2012                           	psect	text13
  2013  001B                     __ptext13:	
  2014 ;; *************** function ___flmul *****************
  2015 ;; Defined at:
  2016 ;;		line 8 in file "C:\Program Files\Microchip\xc8\v2.36\pic\sources\c90\common\sprcmul.c"
  2017 ;; Parameters:    Size  Location     Type
  2018 ;;  b               4   10[BANK0 ] long 
  2019 ;;  a               4   14[BANK0 ] long 
  2020 ;; Auto vars:     Size  Location     Type
  2021 ;;  prod            4   30[BANK0 ] struct .
  2022 ;;  grs             4   24[BANK0 ] unsigned long 
  2023 ;;  temp            2   34[BANK0 ] struct .
  2024 ;;  bexp            1   29[BANK0 ] unsigned char 
  2025 ;;  aexp            1   28[BANK0 ] unsigned char 
  2026 ;;  sign            1   23[BANK0 ] unsigned char 
  2027 ;; Return value:  Size  Location     Type
  2028 ;;                  4   10[BANK0 ] unsigned char 
  2029 ;; Registers used:
  2030 ;;		wreg, status,2, status,0, btemp+1, pclath, cstack
  2031 ;; Tracked objects:
  2032 ;;		On entry : 0/0
  2033 ;;		On exit  : 0/0
  2034 ;;		Unchanged: 0/0
  2035 ;; Data sizes:     COMMON   BANK0   BANK1   BANK3   BANK2
  2036 ;;      Params:         0       8       0       0       0
  2037 ;;      Locals:         0      13       0       0       0
  2038 ;;      Temps:          0       5       0       0       0
  2039 ;;      Totals:         0      26       0       0       0
  2040 ;;Total ram usage:       26 bytes
  2041 ;; Hardware stack levels used: 1
  2042 ;; Hardware stack levels required when called: 1
  2043 ;; This function calls:
  2044 ;;		__Umul8_16
  2045 ;; This function is called by:
  2046 ;;		_map
  2047 ;; This function uses a non-reentrant model
  2048 ;;
  2049                           
  2050  001B                     ___flmul:	
  2051                           ;psect for function ___flmul
  2052                           
  2053  001B                     i1l1479:	
  2054                           ;incstack = 0
  2055                           ; Regs used in ___flmul: [wreg+status,2+status,0+btemp+1+pclath+cstack]
  2056                           
  2057  001B  1283               	bcf	3,5	;RP0=0, select bank0
  2058  001C  1303               	bcf	3,6	;RP1=0, select bank0
  2059  001D  082D               	movf	___flmul@b+3,w
  2060  001E  3980               	andlw	128
  2061  001F  00B2               	movwf	??___flmul
  2062  0020  0832               	movf	??___flmul,w
  2063  0021  00B7               	movwf	___flmul@sign
  2064  0022                     i1l1481:
  2065  0022  082D               	movf	___flmul@b+3,w
  2066  0023  00B2               	movwf	??___flmul
  2067  0024  0732               	addwf	??___flmul,w
  2068  0025  00B3               	movwf	??___flmul+1
  2069  0026  0833               	movf	??___flmul+1,w
  2070  0027  00BD               	movwf	___flmul@bexp
  2071  0028                     i1l1483:
  2072  0028  1FAC               	btfss	___flmul@b+2,7
  2073  0029  282B               	goto	u188_21
  2074  002A  282C               	goto	u188_20
  2075  002B                     u188_21:
  2076  002B  282D               	goto	i1l1487
  2077  002C                     u188_20:
  2078  002C                     i1l1485:
  2079  002C  143D               	bsf	___flmul@bexp,0
  2080  002D                     i1l1487:
  2081  002D  083D               	movf	___flmul@bexp,w
  2082  002E  1903               	btfsc	3,2
  2083  002F  2831               	goto	u189_21
  2084  0030  2832               	goto	u189_20
  2085  0031                     u189_21:
  2086  0031  2841               	goto	i1l1495
  2087  0032                     u189_20:
  2088  0032                     i1l1489:
  2089  0032  0A3D               	incf	___flmul@bexp,w
  2090  0033  1D03               	btfss	3,2
  2091  0034  2836               	goto	u190_21
  2092  0035  2837               	goto	u190_20
  2093  0036                     u190_21:
  2094  0036  283F               	goto	i1l1493
  2095  0037                     u190_20:
  2096  0037                     i1l1491:
  2097  0037  3000               	movlw	0
  2098  0038  00AD               	movwf	___flmul@b+3
  2099  0039  3000               	movlw	0
  2100  003A  00AC               	movwf	___flmul@b+2
  2101  003B  3000               	movlw	0
  2102  003C  00AB               	movwf	___flmul@b+1
  2103  003D  3000               	movlw	0
  2104  003E  00AA               	movwf	___flmul@b
  2105  003F                     i1l1493:
  2106  003F  17AC               	bsf	___flmul@b+2,7
  2107  0040  2849               	goto	i1l1497
  2108  0041                     i1l1495:
  2109  0041  3000               	movlw	0
  2110  0042  00AD               	movwf	___flmul@b+3
  2111  0043  3000               	movlw	0
  2112  0044  00AC               	movwf	___flmul@b+2
  2113  0045  3000               	movlw	0
  2114  0046  00AB               	movwf	___flmul@b+1
  2115  0047  3000               	movlw	0
  2116  0048  00AA               	movwf	___flmul@b
  2117  0049                     i1l1497:
  2118  0049  0831               	movf	___flmul@a+3,w
  2119  004A  3980               	andlw	128
  2120  004B  00B2               	movwf	??___flmul
  2121  004C  0832               	movf	??___flmul,w
  2122  004D  06B7               	xorwf	___flmul@sign,f
  2123  004E                     i1l1499:
  2124  004E  0831               	movf	___flmul@a+3,w
  2125  004F  00B2               	movwf	??___flmul
  2126  0050  0732               	addwf	??___flmul,w
  2127  0051  00B3               	movwf	??___flmul+1
  2128  0052  0833               	movf	??___flmul+1,w
  2129  0053  00BC               	movwf	___flmul@aexp
  2130  0054                     i1l1501:
  2131  0054  1FB0               	btfss	___flmul@a+2,7
  2132  0055  2857               	goto	u191_21
  2133  0056  2858               	goto	u191_20
  2134  0057                     u191_21:
  2135  0057  2859               	goto	i1l1505
  2136  0058                     u191_20:
  2137  0058                     i1l1503:
  2138  0058  143C               	bsf	___flmul@aexp,0
  2139  0059                     i1l1505:
  2140  0059  083C               	movf	___flmul@aexp,w
  2141  005A  1903               	btfsc	3,2
  2142  005B  285D               	goto	u192_21
  2143  005C  285E               	goto	u192_20
  2144  005D                     u192_21:
  2145  005D  286D               	goto	i1l1513
  2146  005E                     u192_20:
  2147  005E                     i1l1507:
  2148  005E  0A3C               	incf	___flmul@aexp,w
  2149  005F  1D03               	btfss	3,2
  2150  0060  2862               	goto	u193_21
  2151  0061  2863               	goto	u193_20
  2152  0062                     u193_21:
  2153  0062  286B               	goto	i1l1511
  2154  0063                     u193_20:
  2155  0063                     i1l1509:
  2156  0063  3000               	movlw	0
  2157  0064  00B1               	movwf	___flmul@a+3
  2158  0065  3000               	movlw	0
  2159  0066  00B0               	movwf	___flmul@a+2
  2160  0067  3000               	movlw	0
  2161  0068  00AF               	movwf	___flmul@a+1
  2162  0069  3000               	movlw	0
  2163  006A  00AE               	movwf	___flmul@a
  2164  006B                     i1l1511:
  2165  006B  17B0               	bsf	___flmul@a+2,7
  2166  006C  2875               	goto	i1l1515
  2167  006D                     i1l1513:
  2168  006D  3000               	movlw	0
  2169  006E  00B1               	movwf	___flmul@a+3
  2170  006F  3000               	movlw	0
  2171  0070  00B0               	movwf	___flmul@a+2
  2172  0071  3000               	movlw	0
  2173  0072  00AF               	movwf	___flmul@a+1
  2174  0073  3000               	movlw	0
  2175  0074  00AE               	movwf	___flmul@a
  2176  0075                     i1l1515:
  2177  0075  083C               	movf	___flmul@aexp,w
  2178  0076  1903               	btfsc	3,2
  2179  0077  2879               	goto	u194_21
  2180  0078  287A               	goto	u194_20
  2181  0079                     u194_21:
  2182  0079  287F               	goto	i1l1519
  2183  007A                     u194_20:
  2184  007A                     i1l1517:
  2185  007A  083D               	movf	___flmul@bexp,w
  2186  007B  1D03               	btfss	3,2
  2187  007C  287E               	goto	u195_21
  2188  007D  287F               	goto	u195_20
  2189  007E                     u195_21:
  2190  007E  2888               	goto	i1l1523
  2191  007F                     u195_20:
  2192  007F                     i1l1519:
  2193  007F  3000               	movlw	0
  2194  0080  00AD               	movwf	?___flmul+3
  2195  0081  3000               	movlw	0
  2196  0082  00AC               	movwf	?___flmul+2
  2197  0083  3000               	movlw	0
  2198  0084  00AB               	movwf	?___flmul+1
  2199  0085  3000               	movlw	0
  2200  0086  00AA               	movwf	?___flmul
  2201  0087  2B7B               	goto	i1l556
  2202  0088                     i1l1523:
  2203  0088  082A               	movf	___flmul@b,w
  2204  0089  00B2               	movwf	??___flmul
  2205  008A  0832               	movf	??___flmul,w
  2206  008B  00F0               	movwf	__Umul8_16@multiplicand
  2207  008C  0830               	movf	___flmul@a+2,w
  2208  008D  120A  158A  2733  120A  118A  	fcall	__Umul8_16
  2209  0092  0871               	movf	?__Umul8_16+1,w
  2210  0093  1283               	bcf	3,5	;RP0=0, select bank0
  2211  0094  1303               	bcf	3,6	;RP1=0, select bank0
  2212  0095  00C3               	movwf	___flmul@temp+1
  2213  0096  0870               	movf	?__Umul8_16,w
  2214  0097  00C2               	movwf	___flmul@temp
  2215  0098                     i1l1525:
  2216  0098  0842               	movf	___flmul@temp,w
  2217  0099  00B2               	movwf	??___flmul
  2218  009A  01B3               	clrf	??___flmul+1
  2219  009B  01B4               	clrf	??___flmul+2
  2220  009C  01B5               	clrf	??___flmul+3
  2221  009D  0835               	movf	??___flmul+3,w
  2222  009E  00BB               	movwf	___flmul@grs+3
  2223  009F  0834               	movf	??___flmul+2,w
  2224  00A0  00BA               	movwf	___flmul@grs+2
  2225  00A1  0833               	movf	??___flmul+1,w
  2226  00A2  00B9               	movwf	___flmul@grs+1
  2227  00A3  0832               	movf	??___flmul,w
  2228  00A4  00B8               	movwf	___flmul@grs
  2229  00A5                     i1l1527:
  2230  00A5  0843               	movf	___flmul@temp+1,w
  2231  00A6  00B2               	movwf	??___flmul
  2232  00A7  01B3               	clrf	??___flmul+1
  2233  00A8  01B4               	clrf	??___flmul+2
  2234  00A9  01B5               	clrf	??___flmul+3
  2235  00AA  0835               	movf	??___flmul+3,w
  2236  00AB  00C1               	movwf	___flmul@prod+3
  2237  00AC  0834               	movf	??___flmul+2,w
  2238  00AD  00C0               	movwf	___flmul@prod+2
  2239  00AE  0833               	movf	??___flmul+1,w
  2240  00AF  00BF               	movwf	___flmul@prod+1
  2241  00B0  0832               	movf	??___flmul,w
  2242  00B1  00BE               	movwf	___flmul@prod
  2243  00B2  082B               	movf	___flmul@b+1,w
  2244  00B3  00B2               	movwf	??___flmul
  2245  00B4  0832               	movf	??___flmul,w
  2246  00B5  00F0               	movwf	__Umul8_16@multiplicand
  2247  00B6  082F               	movf	___flmul@a+1,w
  2248  00B7  120A  158A  2733  120A  118A  	fcall	__Umul8_16
  2249  00BC  0871               	movf	?__Umul8_16+1,w
  2250  00BD  1283               	bcf	3,5	;RP0=0, select bank0
  2251  00BE  1303               	bcf	3,6	;RP1=0, select bank0
  2252  00BF  00C3               	movwf	___flmul@temp+1
  2253  00C0  0870               	movf	?__Umul8_16,w
  2254  00C1  00C2               	movwf	___flmul@temp
  2255  00C2                     i1l1529:
  2256  00C2  0842               	movf	___flmul@temp,w
  2257  00C3  00B2               	movwf	??___flmul
  2258  00C4  01B3               	clrf	??___flmul+1
  2259  00C5  01B4               	clrf	??___flmul+2
  2260  00C6  01B5               	clrf	??___flmul+3
  2261  00C7  0832               	movf	??___flmul,w
  2262  00C8  07B8               	addwf	___flmul@grs,f
  2263  00C9  0833               	movf	??___flmul+1,w
  2264  00CA  1103               	clrz
  2265  00CB  1803               	skipnc
  2266  00CC  3E01               	addlw	1
  2267  00CD  1903               	skipnz
  2268  00CE  28D0               	goto	u196_21
  2269  00CF  07B9               	addwf	___flmul@grs+1,f
  2270  00D0                     u196_21:
  2271  00D0  0834               	movf	??___flmul+2,w
  2272  00D1  1103               	clrz
  2273  00D2  1803               	skipnc
  2274  00D3  3E01               	addlw	1
  2275  00D4  1903               	skipnz
  2276  00D5  28D7               	goto	u196_22
  2277  00D6  07BA               	addwf	___flmul@grs+2,f
  2278  00D7                     u196_22:
  2279  00D7  0835               	movf	??___flmul+3,w
  2280  00D8  1103               	clrz
  2281  00D9  1803               	skipnc
  2282  00DA  3E01               	addlw	1
  2283  00DB  1903               	skipnz
  2284  00DC  28DE               	goto	u196_23
  2285  00DD  07BB               	addwf	___flmul@grs+3,f
  2286  00DE                     u196_23:
  2287  00DE                     i1l1531:
  2288  00DE  0843               	movf	___flmul@temp+1,w
  2289  00DF  00B2               	movwf	??___flmul
  2290  00E0  01B3               	clrf	??___flmul+1
  2291  00E1  01B4               	clrf	??___flmul+2
  2292  00E2  01B5               	clrf	??___flmul+3
  2293  00E3  0832               	movf	??___flmul,w
  2294  00E4  07BE               	addwf	___flmul@prod,f
  2295  00E5  0833               	movf	??___flmul+1,w
  2296  00E6  1103               	clrz
  2297  00E7  1803               	skipnc
  2298  00E8  3E01               	addlw	1
  2299  00E9  1903               	skipnz
  2300  00EA  28EC               	goto	u197_21
  2301  00EB  07BF               	addwf	___flmul@prod+1,f
  2302  00EC                     u197_21:
  2303  00EC  0834               	movf	??___flmul+2,w
  2304  00ED  1103               	clrz
  2305  00EE  1803               	skipnc
  2306  00EF  3E01               	addlw	1
  2307  00F0  1903               	skipnz
  2308  00F1  28F3               	goto	u197_22
  2309  00F2  07C0               	addwf	___flmul@prod+2,f
  2310  00F3                     u197_22:
  2311  00F3  0835               	movf	??___flmul+3,w
  2312  00F4  1103               	clrz
  2313  00F5  1803               	skipnc
  2314  00F6  3E01               	addlw	1
  2315  00F7  1903               	skipnz
  2316  00F8  28FA               	goto	u197_23
  2317  00F9  07C1               	addwf	___flmul@prod+3,f
  2318  00FA                     u197_23:
  2319  00FA  082C               	movf	___flmul@b+2,w
  2320  00FB  00B2               	movwf	??___flmul
  2321  00FC  0832               	movf	??___flmul,w
  2322  00FD  00F0               	movwf	__Umul8_16@multiplicand
  2323  00FE  082E               	movf	___flmul@a,w
  2324  00FF  120A  158A  2733  120A  118A  	fcall	__Umul8_16
  2325  0104  0871               	movf	?__Umul8_16+1,w
  2326  0105  1283               	bcf	3,5	;RP0=0, select bank0
  2327  0106  1303               	bcf	3,6	;RP1=0, select bank0
  2328  0107  00C3               	movwf	___flmul@temp+1
  2329  0108  0870               	movf	?__Umul8_16,w
  2330  0109  00C2               	movwf	___flmul@temp
  2331  010A                     i1l1533:
  2332  010A  0842               	movf	___flmul@temp,w
  2333  010B  00B2               	movwf	??___flmul
  2334  010C  01B3               	clrf	??___flmul+1
  2335  010D  01B4               	clrf	??___flmul+2
  2336  010E  01B5               	clrf	??___flmul+3
  2337  010F  0832               	movf	??___flmul,w
  2338  0110  07B8               	addwf	___flmul@grs,f
  2339  0111  0833               	movf	??___flmul+1,w
  2340  0112  1103               	clrz
  2341  0113  1803               	skipnc
  2342  0114  3E01               	addlw	1
  2343  0115  1903               	skipnz
  2344  0116  2918               	goto	u198_21
  2345  0117  07B9               	addwf	___flmul@grs+1,f
  2346  0118                     u198_21:
  2347  0118  0834               	movf	??___flmul+2,w
  2348  0119  1103               	clrz
  2349  011A  1803               	skipnc
  2350  011B  3E01               	addlw	1
  2351  011C  1903               	skipnz
  2352  011D  291F               	goto	u198_22
  2353  011E  07BA               	addwf	___flmul@grs+2,f
  2354  011F                     u198_22:
  2355  011F  0835               	movf	??___flmul+3,w
  2356  0120  1103               	clrz
  2357  0121  1803               	skipnc
  2358  0122  3E01               	addlw	1
  2359  0123  1903               	skipnz
  2360  0124  2926               	goto	u198_23
  2361  0125  07BB               	addwf	___flmul@grs+3,f
  2362  0126                     u198_23:
  2363  0126                     i1l1535:
  2364  0126  0843               	movf	___flmul@temp+1,w
  2365  0127  00B2               	movwf	??___flmul
  2366  0128  01B3               	clrf	??___flmul+1
  2367  0129  01B4               	clrf	??___flmul+2
  2368  012A  01B5               	clrf	??___flmul+3
  2369  012B  0832               	movf	??___flmul,w
  2370  012C  07BE               	addwf	___flmul@prod,f
  2371  012D  0833               	movf	??___flmul+1,w
  2372  012E  1103               	clrz
  2373  012F  1803               	skipnc
  2374  0130  3E01               	addlw	1
  2375  0131  1903               	skipnz
  2376  0132  2934               	goto	u199_21
  2377  0133  07BF               	addwf	___flmul@prod+1,f
  2378  0134                     u199_21:
  2379  0134  0834               	movf	??___flmul+2,w
  2380  0135  1103               	clrz
  2381  0136  1803               	skipnc
  2382  0137  3E01               	addlw	1
  2383  0138  1903               	skipnz
  2384  0139  293B               	goto	u199_22
  2385  013A  07C0               	addwf	___flmul@prod+2,f
  2386  013B                     u199_22:
  2387  013B  0835               	movf	??___flmul+3,w
  2388  013C  1103               	clrz
  2389  013D  1803               	skipnc
  2390  013E  3E01               	addlw	1
  2391  013F  1903               	skipnz
  2392  0140  2942               	goto	u199_23
  2393  0141  07C1               	addwf	___flmul@prod+3,f
  2394  0142                     u199_23:
  2395  0142                     i1l1537:
  2396  0142  3008               	movlw	8
  2397  0143  00B2               	movwf	??___flmul
  2398  0144                     u200_25:
  2399  0144  1003               	clrc
  2400  0145  0DB8               	rlf	___flmul@grs,f
  2401  0146  0DB9               	rlf	___flmul@grs+1,f
  2402  0147  0DBA               	rlf	___flmul@grs+2,f
  2403  0148  0DBB               	rlf	___flmul@grs+3,f
  2404  0149  0BB2               	decfsz	??___flmul,f
  2405  014A  2944               	goto	u200_25
  2406  014B                     i1l1539:
  2407  014B  082B               	movf	___flmul@b+1,w
  2408  014C  00B2               	movwf	??___flmul
  2409  014D  0832               	movf	??___flmul,w
  2410  014E  00F0               	movwf	__Umul8_16@multiplicand
  2411  014F  082E               	movf	___flmul@a,w
  2412  0150  120A  158A  2733  120A  118A  	fcall	__Umul8_16
  2413  0155  0871               	movf	?__Umul8_16+1,w
  2414  0156  1283               	bcf	3,5	;RP0=0, select bank0
  2415  0157  1303               	bcf	3,6	;RP1=0, select bank0
  2416  0158  00C3               	movwf	___flmul@temp+1
  2417  0159  0870               	movf	?__Umul8_16,w
  2418  015A  00C2               	movwf	___flmul@temp
  2419  015B                     i1l1541:
  2420  015B  0842               	movf	___flmul@temp,w
  2421  015C  00B2               	movwf	??___flmul
  2422  015D  0843               	movf	___flmul@temp+1,w
  2423  015E  00B3               	movwf	??___flmul+1
  2424  015F  01B4               	clrf	??___flmul+2
  2425  0160  01B5               	clrf	??___flmul+3
  2426  0161  0832               	movf	??___flmul,w
  2427  0162  07B8               	addwf	___flmul@grs,f
  2428  0163  0833               	movf	??___flmul+1,w
  2429  0164  1103               	clrz
  2430  0165  1803               	skipnc
  2431  0166  3E01               	addlw	1
  2432  0167  1903               	skipnz
  2433  0168  296A               	goto	u201_21
  2434  0169  07B9               	addwf	___flmul@grs+1,f
  2435  016A                     u201_21:
  2436  016A  0834               	movf	??___flmul+2,w
  2437  016B  1103               	clrz
  2438  016C  1803               	skipnc
  2439  016D  3E01               	addlw	1
  2440  016E  1903               	skipnz
  2441  016F  2971               	goto	u201_22
  2442  0170  07BA               	addwf	___flmul@grs+2,f
  2443  0171                     u201_22:
  2444  0171  0835               	movf	??___flmul+3,w
  2445  0172  1103               	clrz
  2446  0173  1803               	skipnc
  2447  0174  3E01               	addlw	1
  2448  0175  1903               	skipnz
  2449  0176  2978               	goto	u201_23
  2450  0177  07BB               	addwf	___flmul@grs+3,f
  2451  0178                     u201_23:
  2452  0178                     i1l1543:
  2453  0178  082A               	movf	___flmul@b,w
  2454  0179  00B2               	movwf	??___flmul
  2455  017A  0832               	movf	??___flmul,w
  2456  017B  00F0               	movwf	__Umul8_16@multiplicand
  2457  017C  082F               	movf	___flmul@a+1,w
  2458  017D  120A  158A  2733  120A  118A  	fcall	__Umul8_16
  2459  0182  0871               	movf	?__Umul8_16+1,w
  2460  0183  1283               	bcf	3,5	;RP0=0, select bank0
  2461  0184  1303               	bcf	3,6	;RP1=0, select bank0
  2462  0185  00C3               	movwf	___flmul@temp+1
  2463  0186  0870               	movf	?__Umul8_16,w
  2464  0187  00C2               	movwf	___flmul@temp
  2465  0188                     i1l1545:
  2466  0188  0842               	movf	___flmul@temp,w
  2467  0189  00B2               	movwf	??___flmul
  2468  018A  0843               	movf	___flmul@temp+1,w
  2469  018B  00B3               	movwf	??___flmul+1
  2470  018C  01B4               	clrf	??___flmul+2
  2471  018D  01B5               	clrf	??___flmul+3
  2472  018E  0832               	movf	??___flmul,w
  2473  018F  07B8               	addwf	___flmul@grs,f
  2474  0190  0833               	movf	??___flmul+1,w
  2475  0191  1103               	clrz
  2476  0192  1803               	skipnc
  2477  0193  3E01               	addlw	1
  2478  0194  1903               	skipnz
  2479  0195  2997               	goto	u202_21
  2480  0196  07B9               	addwf	___flmul@grs+1,f
  2481  0197                     u202_21:
  2482  0197  0834               	movf	??___flmul+2,w
  2483  0198  1103               	clrz
  2484  0199  1803               	skipnc
  2485  019A  3E01               	addlw	1
  2486  019B  1903               	skipnz
  2487  019C  299E               	goto	u202_22
  2488  019D  07BA               	addwf	___flmul@grs+2,f
  2489  019E                     u202_22:
  2490  019E  0835               	movf	??___flmul+3,w
  2491  019F  1103               	clrz
  2492  01A0  1803               	skipnc
  2493  01A1  3E01               	addlw	1
  2494  01A2  1903               	skipnz
  2495  01A3  29A5               	goto	u202_23
  2496  01A4  07BB               	addwf	___flmul@grs+3,f
  2497  01A5                     u202_23:
  2498  01A5                     i1l1547:
  2499  01A5  3008               	movlw	8
  2500  01A6  00B2               	movwf	??___flmul
  2501  01A7                     u203_25:
  2502  01A7  1003               	clrc
  2503  01A8  0DB8               	rlf	___flmul@grs,f
  2504  01A9  0DB9               	rlf	___flmul@grs+1,f
  2505  01AA  0DBA               	rlf	___flmul@grs+2,f
  2506  01AB  0DBB               	rlf	___flmul@grs+3,f
  2507  01AC  0BB2               	decfsz	??___flmul,f
  2508  01AD  29A7               	goto	u203_25
  2509  01AE  082A               	movf	___flmul@b,w
  2510  01AF  00B2               	movwf	??___flmul
  2511  01B0  0832               	movf	??___flmul,w
  2512  01B1  00F0               	movwf	__Umul8_16@multiplicand
  2513  01B2  082E               	movf	___flmul@a,w
  2514  01B3  120A  158A  2733  120A  118A  	fcall	__Umul8_16
  2515  01B8  0871               	movf	?__Umul8_16+1,w
  2516  01B9  1283               	bcf	3,5	;RP0=0, select bank0
  2517  01BA  1303               	bcf	3,6	;RP1=0, select bank0
  2518  01BB  00C3               	movwf	___flmul@temp+1
  2519  01BC  0870               	movf	?__Umul8_16,w
  2520  01BD  00C2               	movwf	___flmul@temp
  2521  01BE                     i1l1549:
  2522  01BE  0842               	movf	___flmul@temp,w
  2523  01BF  00B2               	movwf	??___flmul
  2524  01C0  0843               	movf	___flmul@temp+1,w
  2525  01C1  00B3               	movwf	??___flmul+1
  2526  01C2  01B4               	clrf	??___flmul+2
  2527  01C3  01B5               	clrf	??___flmul+3
  2528  01C4  0832               	movf	??___flmul,w
  2529  01C5  07B8               	addwf	___flmul@grs,f
  2530  01C6  0833               	movf	??___flmul+1,w
  2531  01C7  1103               	clrz
  2532  01C8  1803               	skipnc
  2533  01C9  3E01               	addlw	1
  2534  01CA  1903               	skipnz
  2535  01CB  29CD               	goto	u204_21
  2536  01CC  07B9               	addwf	___flmul@grs+1,f
  2537  01CD                     u204_21:
  2538  01CD  0834               	movf	??___flmul+2,w
  2539  01CE  1103               	clrz
  2540  01CF  1803               	skipnc
  2541  01D0  3E01               	addlw	1
  2542  01D1  1903               	skipnz
  2543  01D2  29D4               	goto	u204_22
  2544  01D3  07BA               	addwf	___flmul@grs+2,f
  2545  01D4                     u204_22:
  2546  01D4  0835               	movf	??___flmul+3,w
  2547  01D5  1103               	clrz
  2548  01D6  1803               	skipnc
  2549  01D7  3E01               	addlw	1
  2550  01D8  1903               	skipnz
  2551  01D9  29DB               	goto	u204_23
  2552  01DA  07BB               	addwf	___flmul@grs+3,f
  2553  01DB                     u204_23:
  2554  01DB                     i1l1551:
  2555  01DB  082B               	movf	___flmul@b+1,w
  2556  01DC  00B2               	movwf	??___flmul
  2557  01DD  0832               	movf	??___flmul,w
  2558  01DE  00F0               	movwf	__Umul8_16@multiplicand
  2559  01DF  0830               	movf	___flmul@a+2,w
  2560  01E0  120A  158A  2733  120A  118A  	fcall	__Umul8_16
  2561  01E5  0871               	movf	?__Umul8_16+1,w
  2562  01E6  1283               	bcf	3,5	;RP0=0, select bank0
  2563  01E7  1303               	bcf	3,6	;RP1=0, select bank0
  2564  01E8  00C3               	movwf	___flmul@temp+1
  2565  01E9  0870               	movf	?__Umul8_16,w
  2566  01EA  00C2               	movwf	___flmul@temp
  2567  01EB  0842               	movf	___flmul@temp,w
  2568  01EC  00B2               	movwf	??___flmul
  2569  01ED  0843               	movf	___flmul@temp+1,w
  2570  01EE  00B3               	movwf	??___flmul+1
  2571  01EF  01B4               	clrf	??___flmul+2
  2572  01F0  01B5               	clrf	??___flmul+3
  2573  01F1  0832               	movf	??___flmul,w
  2574  01F2  07BE               	addwf	___flmul@prod,f
  2575  01F3  0833               	movf	??___flmul+1,w
  2576  01F4  1103               	clrz
  2577  01F5  1803               	skipnc
  2578  01F6  3E01               	addlw	1
  2579  01F7  1903               	skipnz
  2580  01F8  29FA               	goto	u205_21
  2581  01F9  07BF               	addwf	___flmul@prod+1,f
  2582  01FA                     u205_21:
  2583  01FA  0834               	movf	??___flmul+2,w
  2584  01FB  1103               	clrz
  2585  01FC  1803               	skipnc
  2586  01FD  3E01               	addlw	1
  2587  01FE  1903               	skipnz
  2588  01FF  2A01               	goto	u205_22
  2589  0200  07C0               	addwf	___flmul@prod+2,f
  2590  0201                     u205_22:
  2591  0201  0835               	movf	??___flmul+3,w
  2592  0202  1103               	clrz
  2593  0203  1803               	skipnc
  2594  0204  3E01               	addlw	1
  2595  0205  1903               	skipnz
  2596  0206  2A08               	goto	u205_23
  2597  0207  07C1               	addwf	___flmul@prod+3,f
  2598  0208                     u205_23:
  2599  0208                     i1l1553:
  2600  0208  082C               	movf	___flmul@b+2,w
  2601  0209  00B2               	movwf	??___flmul
  2602  020A  0832               	movf	??___flmul,w
  2603  020B  00F0               	movwf	__Umul8_16@multiplicand
  2604  020C  082F               	movf	___flmul@a+1,w
  2605  020D  120A  158A  2733  120A  118A  	fcall	__Umul8_16
  2606  0212  0871               	movf	?__Umul8_16+1,w
  2607  0213  1283               	bcf	3,5	;RP0=0, select bank0
  2608  0214  1303               	bcf	3,6	;RP1=0, select bank0
  2609  0215  00C3               	movwf	___flmul@temp+1
  2610  0216  0870               	movf	?__Umul8_16,w
  2611  0217  00C2               	movwf	___flmul@temp
  2612  0218                     i1l1555:
  2613  0218  0842               	movf	___flmul@temp,w
  2614  0219  00B2               	movwf	??___flmul
  2615  021A  0843               	movf	___flmul@temp+1,w
  2616  021B  00B3               	movwf	??___flmul+1
  2617  021C  01B4               	clrf	??___flmul+2
  2618  021D  01B5               	clrf	??___flmul+3
  2619  021E  0832               	movf	??___flmul,w
  2620  021F  07BE               	addwf	___flmul@prod,f
  2621  0220  0833               	movf	??___flmul+1,w
  2622  0221  1103               	clrz
  2623  0222  1803               	skipnc
  2624  0223  3E01               	addlw	1
  2625  0224  1903               	skipnz
  2626  0225  2A27               	goto	u206_21
  2627  0226  07BF               	addwf	___flmul@prod+1,f
  2628  0227                     u206_21:
  2629  0227  0834               	movf	??___flmul+2,w
  2630  0228  1103               	clrz
  2631  0229  1803               	skipnc
  2632  022A  3E01               	addlw	1
  2633  022B  1903               	skipnz
  2634  022C  2A2E               	goto	u206_22
  2635  022D  07C0               	addwf	___flmul@prod+2,f
  2636  022E                     u206_22:
  2637  022E  0835               	movf	??___flmul+3,w
  2638  022F  1103               	clrz
  2639  0230  1803               	skipnc
  2640  0231  3E01               	addlw	1
  2641  0232  1903               	skipnz
  2642  0233  2A35               	goto	u206_23
  2643  0234  07C1               	addwf	___flmul@prod+3,f
  2644  0235                     u206_23:
  2645  0235  082C               	movf	___flmul@b+2,w
  2646  0236  00B2               	movwf	??___flmul
  2647  0237  0832               	movf	??___flmul,w
  2648  0238  00F0               	movwf	__Umul8_16@multiplicand
  2649  0239  0830               	movf	___flmul@a+2,w
  2650  023A  120A  158A  2733  120A  118A  	fcall	__Umul8_16
  2651  023F  0871               	movf	?__Umul8_16+1,w
  2652  0240  1283               	bcf	3,5	;RP0=0, select bank0
  2653  0241  1303               	bcf	3,6	;RP1=0, select bank0
  2654  0242  00C3               	movwf	___flmul@temp+1
  2655  0243  0870               	movf	?__Umul8_16,w
  2656  0244  00C2               	movwf	___flmul@temp
  2657  0245                     i1l1557:
  2658  0245  0842               	movf	___flmul@temp,w
  2659  0246  00B2               	movwf	??___flmul
  2660  0247  0843               	movf	___flmul@temp+1,w
  2661  0248  00B3               	movwf	??___flmul+1
  2662  0249  01B4               	clrf	??___flmul+2
  2663  024A  01B5               	clrf	??___flmul+3
  2664  024B  3008               	movlw	8
  2665  024C                     u207_25:
  2666  024C  1003               	clrc
  2667  024D  0DB2               	rlf	??___flmul,f
  2668  024E  0DB3               	rlf	??___flmul+1,f
  2669  024F  0DB4               	rlf	??___flmul+2,f
  2670  0250  0DB5               	rlf	??___flmul+3,f
  2671  0251                     u207_20:
  2672  0251  3EFF               	addlw	-1
  2673  0252  1D03               	skipz
  2674  0253  2A4C               	goto	u207_25
  2675  0254  0832               	movf	??___flmul,w
  2676  0255  07BE               	addwf	___flmul@prod,f
  2677  0256  0833               	movf	??___flmul+1,w
  2678  0257  1103               	clrz
  2679  0258  1803               	skipnc
  2680  0259  3E01               	addlw	1
  2681  025A  1903               	skipnz
  2682  025B  2A5D               	goto	u208_21
  2683  025C  07BF               	addwf	___flmul@prod+1,f
  2684  025D                     u208_21:
  2685  025D  0834               	movf	??___flmul+2,w
  2686  025E  1103               	clrz
  2687  025F  1803               	skipnc
  2688  0260  3E01               	addlw	1
  2689  0261  1903               	skipnz
  2690  0262  2A64               	goto	u208_22
  2691  0263  07C0               	addwf	___flmul@prod+2,f
  2692  0264                     u208_22:
  2693  0264  0835               	movf	??___flmul+3,w
  2694  0265  1103               	clrz
  2695  0266  1803               	skipnc
  2696  0267  3E01               	addlw	1
  2697  0268  1903               	skipnz
  2698  0269  2A6B               	goto	u208_23
  2699  026A  07C1               	addwf	___flmul@prod+3,f
  2700  026B                     u208_23:
  2701  026B                     i1l1559:
  2702  026B  0838               	movf	___flmul@grs,w
  2703  026C  00B2               	movwf	??___flmul
  2704  026D  0839               	movf	___flmul@grs+1,w
  2705  026E  00B3               	movwf	??___flmul+1
  2706  026F  083A               	movf	___flmul@grs+2,w
  2707  0270  00B4               	movwf	??___flmul+2
  2708  0271  083B               	movf	___flmul@grs+3,w
  2709  0272  00B5               	movwf	??___flmul+3
  2710  0273  3018               	movlw	24
  2711  0274                     u209_25:
  2712  0274  1003               	clrc
  2713  0275  0CB5               	rrf	??___flmul+3,f
  2714  0276  0CB4               	rrf	??___flmul+2,f
  2715  0277  0CB3               	rrf	??___flmul+1,f
  2716  0278  0CB2               	rrf	??___flmul,f
  2717  0279                     u209_20:
  2718  0279  3EFF               	addlw	-1
  2719  027A  1D03               	skipz
  2720  027B  2A74               	goto	u209_25
  2721  027C  0832               	movf	??___flmul,w
  2722  027D  07BE               	addwf	___flmul@prod,f
  2723  027E  0833               	movf	??___flmul+1,w
  2724  027F  1103               	clrz
  2725  0280  1803               	skipnc
  2726  0281  3E01               	addlw	1
  2727  0282  1903               	skipnz
  2728  0283  2A85               	goto	u210_21
  2729  0284  07BF               	addwf	___flmul@prod+1,f
  2730  0285                     u210_21:
  2731  0285  0834               	movf	??___flmul+2,w
  2732  0286  1103               	clrz
  2733  0287  1803               	skipnc
  2734  0288  3E01               	addlw	1
  2735  0289  1903               	skipnz
  2736  028A  2A8C               	goto	u210_22
  2737  028B  07C0               	addwf	___flmul@prod+2,f
  2738  028C                     u210_22:
  2739  028C  0835               	movf	??___flmul+3,w
  2740  028D  1103               	clrz
  2741  028E  1803               	skipnc
  2742  028F  3E01               	addlw	1
  2743  0290  1903               	skipnz
  2744  0291  2A93               	goto	u210_23
  2745  0292  07C1               	addwf	___flmul@prod+3,f
  2746  0293                     u210_23:
  2747  0293                     i1l1561:
  2748  0293  3008               	movlw	8
  2749  0294  00B2               	movwf	??___flmul
  2750  0295                     u211_25:
  2751  0295  1003               	clrc
  2752  0296  0DB8               	rlf	___flmul@grs,f
  2753  0297  0DB9               	rlf	___flmul@grs+1,f
  2754  0298  0DBA               	rlf	___flmul@grs+2,f
  2755  0299  0DBB               	rlf	___flmul@grs+3,f
  2756  029A  0BB2               	decfsz	??___flmul,f
  2757  029B  2A95               	goto	u211_25
  2758  029C                     i1l1563:
  2759  029C  083D               	movf	___flmul@bexp,w
  2760  029D  073C               	addwf	___flmul@aexp,w
  2761  029E  00B2               	movwf	??___flmul
  2762  029F  01B3               	clrf	??___flmul+1
  2763  02A0  0DB3               	rlf	??___flmul+1,f
  2764  02A1  0832               	movf	??___flmul,w
  2765  02A2  3E82               	addlw	130
  2766  02A3  00C2               	movwf	___flmul@temp
  2767  02A4  0833               	movf	??___flmul+1,w
  2768  02A5  1803               	skipnc
  2769  02A6  3E01               	addlw	1
  2770  02A7  3EFF               	addlw	255
  2771  02A8  00C3               	movwf	___flmul@temp+1
  2772  02A9  2AC7               	goto	i1l1575
  2773  02AA                     i1l1565:
  2774  02AA  3001               	movlw	1
  2775  02AB  00B2               	movwf	??___flmul
  2776  02AC                     u212_25:
  2777  02AC  1003               	clrc
  2778  02AD  0DBE               	rlf	___flmul@prod,f
  2779  02AE  0DBF               	rlf	___flmul@prod+1,f
  2780  02AF  0DC0               	rlf	___flmul@prod+2,f
  2781  02B0  0DC1               	rlf	___flmul@prod+3,f
  2782  02B1  0BB2               	decfsz	??___flmul,f
  2783  02B2  2AAC               	goto	u212_25
  2784  02B3                     i1l1567:
  2785  02B3  1FBB               	btfss	___flmul@grs+3,7
  2786  02B4  2AB6               	goto	u213_21
  2787  02B5  2AB7               	goto	u213_20
  2788  02B6                     u213_21:
  2789  02B6  2AB8               	goto	i1l1571
  2790  02B7                     u213_20:
  2791  02B7                     i1l1569:
  2792  02B7  143E               	bsf	___flmul@prod,0
  2793  02B8                     i1l1571:
  2794  02B8  3001               	movlw	1
  2795  02B9  00B2               	movwf	??___flmul
  2796  02BA                     u214_25:
  2797  02BA  1003               	clrc
  2798  02BB  0DB8               	rlf	___flmul@grs,f
  2799  02BC  0DB9               	rlf	___flmul@grs+1,f
  2800  02BD  0DBA               	rlf	___flmul@grs+2,f
  2801  02BE  0DBB               	rlf	___flmul@grs+3,f
  2802  02BF  0BB2               	decfsz	??___flmul,f
  2803  02C0  2ABA               	goto	u214_25
  2804  02C1                     i1l1573:
  2805  02C1  30FF               	movlw	255
  2806  02C2  07C2               	addwf	___flmul@temp,f
  2807  02C3  1803               	skipnc
  2808  02C4  0AC3               	incf	___flmul@temp+1,f
  2809  02C5  30FF               	movlw	255
  2810  02C6  07C3               	addwf	___flmul@temp+1,f
  2811  02C7                     i1l1575:
  2812  02C7  1FC0               	btfss	___flmul@prod+2,7
  2813  02C8  2ACA               	goto	u215_21
  2814  02C9  2ACB               	goto	u215_20
  2815  02CA                     u215_21:
  2816  02CA  2AAA               	goto	i1l1565
  2817  02CB                     u215_20:
  2818  02CB                     i1l1577:
  2819  02CB  01BC               	clrf	___flmul@aexp
  2820  02CC                     i1l1579:
  2821  02CC  1FBB               	btfss	___flmul@grs+3,7
  2822  02CD  2ACF               	goto	u216_21
  2823  02CE  2AD0               	goto	u216_20
  2824  02CF                     u216_21:
  2825  02CF  2AEC               	goto	i1l1587
  2826  02D0                     u216_20:
  2827  02D0                     i1l1581:
  2828  02D0  30FF               	movlw	255
  2829  02D1  0538               	andwf	___flmul@grs,w
  2830  02D2  00B2               	movwf	??___flmul
  2831  02D3  30FF               	movlw	255
  2832  02D4  0539               	andwf	___flmul@grs+1,w
  2833  02D5  00B3               	movwf	??___flmul+1
  2834  02D6  30FF               	movlw	255
  2835  02D7  053A               	andwf	___flmul@grs+2,w
  2836  02D8  00B4               	movwf	??___flmul+2
  2837  02D9  307F               	movlw	127
  2838  02DA  053B               	andwf	___flmul@grs+3,w
  2839  02DB  00B5               	movwf	??___flmul+3
  2840  02DC  0835               	movf	??___flmul+3,w
  2841  02DD  0434               	iorwf	??___flmul+2,w
  2842  02DE  0433               	iorwf	??___flmul+1,w
  2843  02DF  0432               	iorwf	??___flmul,w
  2844  02E0  1903               	skipnz
  2845  02E1  2AE3               	goto	u217_21
  2846  02E2  2AE4               	goto	u217_20
  2847  02E3                     u217_21:
  2848  02E3  2AE7               	goto	i1l562
  2849  02E4                     u217_20:
  2850  02E4                     i1l1583:
  2851  02E4  01BC               	clrf	___flmul@aexp
  2852  02E5  0ABC               	incf	___flmul@aexp,f
  2853  02E6  2AEC               	goto	i1l1587
  2854  02E7                     i1l562:
  2855  02E7  1C3E               	btfss	___flmul@prod,0
  2856  02E8  2AEA               	goto	u218_21
  2857  02E9  2AEB               	goto	u218_20
  2858  02EA                     u218_21:
  2859  02EA  2AEC               	goto	i1l1587
  2860  02EB                     u218_20:
  2861  02EB  2AE4               	goto	i1l1583
  2862  02EC                     i1l1587:
  2863  02EC  083C               	movf	___flmul@aexp,w
  2864  02ED  1903               	btfsc	3,2
  2865  02EE  2AF0               	goto	u219_21
  2866  02EF  2AF1               	goto	u219_20
  2867  02F0                     u219_21:
  2868  02F0  2B22               	goto	i1l1597
  2869  02F1                     u219_20:
  2870  02F1                     i1l1589:
  2871  02F1  3001               	movlw	1
  2872  02F2  07BE               	addwf	___flmul@prod,f
  2873  02F3  3000               	movlw	0
  2874  02F4  1803               	skipnc
  2875  02F5  3001               	movlw	1
  2876  02F6  07BF               	addwf	___flmul@prod+1,f
  2877  02F7  3000               	movlw	0
  2878  02F8  1803               	skipnc
  2879  02F9  3001               	movlw	1
  2880  02FA  07C0               	addwf	___flmul@prod+2,f
  2881  02FB  3000               	movlw	0
  2882  02FC  1803               	skipnc
  2883  02FD  3001               	movlw	1
  2884  02FE  07C1               	addwf	___flmul@prod+3,f
  2885  02FF                     i1l1591:
  2886  02FF  1C41               	btfss	___flmul@prod+3,0
  2887  0300  2B02               	goto	u220_21
  2888  0301  2B03               	goto	u220_20
  2889  0302                     u220_21:
  2890  0302  2B22               	goto	i1l1597
  2891  0303                     u220_20:
  2892  0303                     i1l1593:
  2893  0303  083E               	movf	___flmul@prod,w
  2894  0304  00B2               	movwf	??___flmul
  2895  0305  083F               	movf	___flmul@prod+1,w
  2896  0306  00B3               	movwf	??___flmul+1
  2897  0307  0840               	movf	___flmul@prod+2,w
  2898  0308  00B4               	movwf	??___flmul+2
  2899  0309  0841               	movf	___flmul@prod+3,w
  2900  030A  00B5               	movwf	??___flmul+3
  2901  030B  3001               	movlw	1
  2902  030C  00B6               	movwf	??___flmul+4
  2903  030D                     u221_25:
  2904  030D  0D35               	rlf	??___flmul+3,w
  2905  030E  0CB5               	rrf	??___flmul+3,f
  2906  030F  0CB4               	rrf	??___flmul+2,f
  2907  0310  0CB3               	rrf	??___flmul+1,f
  2908  0311  0CB2               	rrf	??___flmul,f
  2909  0312                     u221_20:
  2910  0312  0BB6               	decfsz	??___flmul+4,f
  2911  0313  2B0D               	goto	u221_25
  2912  0314  0835               	movf	??___flmul+3,w
  2913  0315  00C1               	movwf	___flmul@prod+3
  2914  0316  0834               	movf	??___flmul+2,w
  2915  0317  00C0               	movwf	___flmul@prod+2
  2916  0318  0833               	movf	??___flmul+1,w
  2917  0319  00BF               	movwf	___flmul@prod+1
  2918  031A  0832               	movf	??___flmul,w
  2919  031B  00BE               	movwf	___flmul@prod
  2920  031C                     i1l1595:
  2921  031C  3001               	movlw	1
  2922  031D  07C2               	addwf	___flmul@temp,f
  2923  031E  1803               	skipnc
  2924  031F  0AC3               	incf	___flmul@temp+1,f
  2925  0320  3000               	movlw	0
  2926  0321  07C3               	addwf	___flmul@temp+1,f
  2927  0322                     i1l1597:
  2928  0322  0843               	movf	___flmul@temp+1,w
  2929  0323  3A80               	xorlw	128
  2930  0324  00FF               	movwf	btemp+1
  2931  0325  3080               	movlw	128
  2932  0326  027F               	subwf	btemp+1,w
  2933  0327  1D03               	skipz
  2934  0328  2B2B               	goto	u222_25
  2935  0329  30FF               	movlw	255
  2936  032A  0242               	subwf	___flmul@temp,w
  2937  032B                     u222_25:
  2938  032B  1C03               	skipc
  2939  032C  2B2E               	goto	u222_21
  2940  032D  2B2F               	goto	u222_20
  2941  032E                     u222_21:
  2942  032E  2B3A               	goto	i1l1601
  2943  032F                     u222_20:
  2944  032F                     i1l1599:
  2945  032F  307F               	movlw	127
  2946  0330  1283               	bcf	3,5	;RP0=0, select bank0
  2947  0331  1303               	bcf	3,6	;RP1=0, select bank0
  2948  0332  00C1               	movwf	___flmul@prod+3
  2949  0333  3080               	movlw	128
  2950  0334  00C0               	movwf	___flmul@prod+2
  2951  0335  3000               	movlw	0
  2952  0336  00BF               	movwf	___flmul@prod+1
  2953  0337  3000               	movlw	0
  2954  0338  00BE               	movwf	___flmul@prod
  2955  0339  2B6F               	goto	i1l568
  2956  033A                     i1l1601:
  2957  033A  1283               	bcf	3,5	;RP0=0, select bank0
  2958  033B  1303               	bcf	3,6	;RP1=0, select bank0
  2959  033C  0843               	movf	___flmul@temp+1,w
  2960  033D  3A80               	xorlw	128
  2961  033E  00FF               	movwf	btemp+1
  2962  033F  3080               	movlw	128
  2963  0340  027F               	subwf	btemp+1,w
  2964  0341  1D03               	skipz
  2965  0342  2B45               	goto	u223_25
  2966  0343  3001               	movlw	1
  2967  0344  0242               	subwf	___flmul@temp,w
  2968  0345                     u223_25:
  2969  0345  1803               	skipnc
  2970  0346  2B48               	goto	u223_21
  2971  0347  2B49               	goto	u223_20
  2972  0348                     u223_21:
  2973  0348  2B55               	goto	i1l1607
  2974  0349                     u223_20:
  2975  0349                     i1l1603:
  2976  0349  3000               	movlw	0
  2977  034A  1283               	bcf	3,5	;RP0=0, select bank0
  2978  034B  1303               	bcf	3,6	;RP1=0, select bank0
  2979  034C  00C1               	movwf	___flmul@prod+3
  2980  034D  3000               	movlw	0
  2981  034E  00C0               	movwf	___flmul@prod+2
  2982  034F  3000               	movlw	0
  2983  0350  00BF               	movwf	___flmul@prod+1
  2984  0351  3000               	movlw	0
  2985  0352  00BE               	movwf	___flmul@prod
  2986  0353                     i1l1605:
  2987  0353  01B7               	clrf	___flmul@sign
  2988  0354  2B6F               	goto	i1l568
  2989  0355                     i1l1607:
  2990  0355  1283               	bcf	3,5	;RP0=0, select bank0
  2991  0356  1303               	bcf	3,6	;RP1=0, select bank0
  2992  0357  0842               	movf	___flmul@temp,w
  2993  0358  00B2               	movwf	??___flmul
  2994  0359  0832               	movf	??___flmul,w
  2995  035A  00BD               	movwf	___flmul@bexp
  2996  035B  30FF               	movlw	255
  2997  035C  05BE               	andwf	___flmul@prod,f
  2998  035D  30FF               	movlw	255
  2999  035E  05BF               	andwf	___flmul@prod+1,f
  3000  035F  307F               	movlw	127
  3001  0360  05C0               	andwf	___flmul@prod+2,f
  3002  0361  3000               	movlw	0
  3003  0362  05C1               	andwf	___flmul@prod+3,f
  3004  0363                     i1l1609:
  3005  0363  1C3D               	btfss	___flmul@bexp,0
  3006  0364  2B66               	goto	u224_21
  3007  0365  2B67               	goto	u224_20
  3008  0366                     u224_21:
  3009  0366  2B68               	goto	i1l1613
  3010  0367                     u224_20:
  3011  0367                     i1l1611:
  3012  0367  17C0               	bsf	___flmul@prod+2,7
  3013  0368                     i1l1613:
  3014  0368  083D               	movf	___flmul@bexp,w
  3015  0369  00B2               	movwf	??___flmul
  3016  036A  1003               	clrc
  3017  036B  0C32               	rrf	??___flmul,w
  3018  036C  00B3               	movwf	??___flmul+1
  3019  036D  0833               	movf	??___flmul+1,w
  3020  036E  00C1               	movwf	___flmul@prod+3
  3021  036F                     i1l568:
  3022  036F  0837               	movf	___flmul@sign,w
  3023  0370  00B2               	movwf	??___flmul
  3024  0371  0832               	movf	??___flmul,w
  3025  0372  04C1               	iorwf	___flmul@prod+3,f
  3026  0373                     i1l1615:
  3027  0373  0841               	movf	___flmul@prod+3,w
  3028  0374  00AD               	movwf	?___flmul+3
  3029  0375  0840               	movf	___flmul@prod+2,w
  3030  0376  00AC               	movwf	?___flmul+2
  3031  0377  083F               	movf	___flmul@prod+1,w
  3032  0378  00AB               	movwf	?___flmul+1
  3033  0379  083E               	movf	___flmul@prod,w
  3034  037A  00AA               	movwf	?___flmul
  3035  037B                     i1l556:
  3036  037B  0008               	return
  3037  037C                     __end_of___flmul:
  3038                           
  3039                           	psect	text14
  3040  0F33                     __ptext14:	
  3041 ;; *************** function __Umul8_16 *****************
  3042 ;; Defined at:
  3043 ;;		line 4 in file "C:\Program Files\Microchip\xc8\v2.36\pic\sources\c90\common\Umul8_16.c"
  3044 ;; Parameters:    Size  Location     Type
  3045 ;;  multiplier      1    wreg     unsigned char 
  3046 ;;  multiplicand    1    0[COMMON] unsigned char 
  3047 ;; Auto vars:     Size  Location     Type
  3048 ;;  multiplier      1    8[COMMON] unsigned char 
  3049 ;;  word_mpld       2    6[COMMON] unsigned int 
  3050 ;;  product         2    4[COMMON] unsigned int 
  3051 ;; Return value:  Size  Location     Type
  3052 ;;                  2    0[COMMON] unsigned int 
  3053 ;; Registers used:
  3054 ;;		wreg, status,2, status,0
  3055 ;; Tracked objects:
  3056 ;;		On entry : 0/0
  3057 ;;		On exit  : 0/0
  3058 ;;		Unchanged: 0/0
  3059 ;; Data sizes:     COMMON   BANK0   BANK1   BANK3   BANK2
  3060 ;;      Params:         2       0       0       0       0
  3061 ;;      Locals:         5       0       0       0       0
  3062 ;;      Temps:          2       0       0       0       0
  3063 ;;      Totals:         9       0       0       0       0
  3064 ;;Total ram usage:        9 bytes
  3065 ;; Hardware stack levels used: 1
  3066 ;; This function calls:
  3067 ;;		Nothing
  3068 ;; This function is called by:
  3069 ;;		___flmul
  3070 ;; This function uses a non-reentrant model
  3071 ;;
  3072                           
  3073  0F33                     __Umul8_16:	
  3074                           ;psect for function __Umul8_16
  3075                           
  3076                           
  3077                           ;incstack = 0
  3078                           ; Regs used in __Umul8_16: [wreg+status,2+status,0]
  3079                           ;__Umul8_16@multiplier stored from wreg
  3080  0F33  00F8               	movwf	__Umul8_16@multiplier
  3081  0F34                     i1l1209:
  3082  0F34  01F4               	clrf	__Umul8_16@product
  3083  0F35  01F5               	clrf	__Umul8_16@product+1
  3084  0F36                     i1l1211:
  3085  0F36  0870               	movf	__Umul8_16@multiplicand,w
  3086  0F37  00F2               	movwf	??__Umul8_16
  3087  0F38  01F3               	clrf	??__Umul8_16+1
  3088  0F39  0872               	movf	??__Umul8_16,w
  3089  0F3A  00F6               	movwf	__Umul8_16@word_mpld
  3090  0F3B  0873               	movf	??__Umul8_16+1,w
  3091  0F3C  00F7               	movwf	__Umul8_16@word_mpld+1
  3092  0F3D                     i1l1213:
  3093  0F3D  1C78               	btfss	__Umul8_16@multiplier,0
  3094  0F3E  2F40               	goto	u122_21
  3095  0F3F  2F41               	goto	u122_20
  3096  0F40                     u122_21:
  3097  0F40  2F47               	goto	i1l575
  3098  0F41                     u122_20:
  3099  0F41                     i1l1215:
  3100  0F41  0876               	movf	__Umul8_16@word_mpld,w
  3101  0F42  07F4               	addwf	__Umul8_16@product,f
  3102  0F43  1803               	skipnc
  3103  0F44  0AF5               	incf	__Umul8_16@product+1,f
  3104  0F45  0877               	movf	__Umul8_16@word_mpld+1,w
  3105  0F46  07F5               	addwf	__Umul8_16@product+1,f
  3106  0F47                     i1l575:
  3107  0F47  3001               	movlw	1
  3108  0F48                     u123_25:
  3109  0F48  1003               	clrc
  3110  0F49  0DF6               	rlf	__Umul8_16@word_mpld,f
  3111  0F4A  0DF7               	rlf	__Umul8_16@word_mpld+1,f
  3112  0F4B  3EFF               	addlw	-1
  3113  0F4C  1D03               	skipz
  3114  0F4D  2F48               	goto	u123_25
  3115  0F4E  1003               	clrc
  3116  0F4F  0CF8               	rrf	__Umul8_16@multiplier,f
  3117  0F50                     i1l1217:
  3118  0F50  0878               	movf	__Umul8_16@multiplier,w
  3119  0F51  1D03               	btfss	3,2
  3120  0F52  2F54               	goto	u124_21
  3121  0F53  2F55               	goto	u124_20
  3122  0F54                     u124_21:
  3123  0F54  2F3D               	goto	i1l1213
  3124  0F55                     u124_20:
  3125  0F55                     i1l1219:
  3126  0F55  0875               	movf	__Umul8_16@product+1,w
  3127  0F56  00F1               	movwf	?__Umul8_16+1
  3128  0F57  0874               	movf	__Umul8_16@product,w
  3129  0F58  00F0               	movwf	?__Umul8_16
  3130  0F59                     i1l577:
  3131  0F59  0008               	return
  3132  0F5A                     __end_of__Umul8_16:
  3133                           
  3134                           	psect	text15
  3135  037C                     __ptext15:	
  3136 ;; *************** function ___fladd *****************
  3137 ;; Defined at:
  3138 ;;		line 10 in file "C:\Program Files\Microchip\xc8\v2.36\pic\sources\c90\common\sprcadd.c"
  3139 ;; Parameters:    Size  Location     Type
  3140 ;;  b               4   36[BANK0 ] unsigned int 
  3141 ;;  a               4   40[BANK0 ] unsigned int 
  3142 ;; Auto vars:     Size  Location     Type
  3143 ;;  grs             1   55[BANK0 ] unsigned char 
  3144 ;;  bexp            1   54[BANK0 ] unsigned char 
  3145 ;;  aexp            1   53[BANK0 ] unsigned char 
  3146 ;;  signs           1   52[BANK0 ] unsigned char 
  3147 ;; Return value:  Size  Location     Type
  3148 ;;                  4   36[BANK0 ] unsigned char 
  3149 ;; Registers used:
  3150 ;;		wreg, status,2, status,0, btemp+1
  3151 ;; Tracked objects:
  3152 ;;		On entry : 0/0
  3153 ;;		On exit  : 0/0
  3154 ;;		Unchanged: 0/0
  3155 ;; Data sizes:     COMMON   BANK0   BANK1   BANK3   BANK2
  3156 ;;      Params:         0       8       0       0       0
  3157 ;;      Locals:         0       4       0       0       0
  3158 ;;      Temps:          0       8       0       0       0
  3159 ;;      Totals:         0      20       0       0       0
  3160 ;;Total ram usage:       20 bytes
  3161 ;; Hardware stack levels used: 1
  3162 ;; This function calls:
  3163 ;;		Nothing
  3164 ;; This function is called by:
  3165 ;;		_map
  3166 ;; This function uses a non-reentrant model
  3167 ;;
  3168                           
  3169  037C                     ___fladd:	
  3170                           ;psect for function ___fladd
  3171                           
  3172  037C                     i1l1285:	
  3173                           ;incstack = 0
  3174                           ; Regs used in ___fladd: [wreg+status,2+status,0+btemp+1]
  3175                           
  3176  037C  1283               	bcf	3,5	;RP0=0, select bank0
  3177  037D  1303               	bcf	3,6	;RP1=0, select bank0
  3178  037E  0847               	movf	___fladd@b+3,w
  3179  037F  3980               	andlw	128
  3180  0380  00CC               	movwf	??___fladd
  3181  0381  084C               	movf	??___fladd,w
  3182  0382  00D4               	movwf	___fladd@signs
  3183  0383                     i1l1287:
  3184  0383  0847               	movf	___fladd@b+3,w
  3185  0384  00CC               	movwf	??___fladd
  3186  0385  074C               	addwf	??___fladd,w
  3187  0386  00CD               	movwf	??___fladd+1
  3188  0387  084D               	movf	??___fladd+1,w
  3189  0388  00D6               	movwf	___fladd@bexp
  3190  0389                     i1l1289:
  3191  0389  1FC6               	btfss	___fladd@b+2,7
  3192  038A  2B8C               	goto	u142_21
  3193  038B  2B8D               	goto	u142_20
  3194  038C                     u142_21:
  3195  038C  2B8E               	goto	i1l1293
  3196  038D                     u142_20:
  3197  038D                     i1l1291:
  3198  038D  1456               	bsf	___fladd@bexp,0
  3199  038E                     i1l1293:
  3200  038E  0856               	movf	___fladd@bexp,w
  3201  038F  1903               	btfsc	3,2
  3202  0390  2B92               	goto	u143_21
  3203  0391  2B93               	goto	u143_20
  3204  0392                     u143_21:
  3205  0392  2BA3               	goto	i1l1303
  3206  0393                     u143_20:
  3207  0393                     i1l1295:
  3208  0393  0A56               	incf	___fladd@bexp,w
  3209  0394  1D03               	btfss	3,2
  3210  0395  2B97               	goto	u144_21
  3211  0396  2B98               	goto	u144_20
  3212  0397                     u144_21:
  3213  0397  2BA0               	goto	i1l1299
  3214  0398                     u144_20:
  3215  0398                     i1l1297:
  3216  0398  3000               	movlw	0
  3217  0399  00C7               	movwf	___fladd@b+3
  3218  039A  3000               	movlw	0
  3219  039B  00C6               	movwf	___fladd@b+2
  3220  039C  3000               	movlw	0
  3221  039D  00C5               	movwf	___fladd@b+1
  3222  039E  3000               	movlw	0
  3223  039F  00C4               	movwf	___fladd@b
  3224  03A0                     i1l1299:
  3225  03A0  17C6               	bsf	___fladd@b+2,7
  3226  03A1                     i1l1301:
  3227  03A1  01C7               	clrf	___fladd@b+3
  3228  03A2  2BAB               	goto	i1l1305
  3229  03A3                     i1l1303:
  3230  03A3  3000               	movlw	0
  3231  03A4  00C7               	movwf	___fladd@b+3
  3232  03A5  3000               	movlw	0
  3233  03A6  00C6               	movwf	___fladd@b+2
  3234  03A7  3000               	movlw	0
  3235  03A8  00C5               	movwf	___fladd@b+1
  3236  03A9  3000               	movlw	0
  3237  03AA  00C4               	movwf	___fladd@b
  3238  03AB                     i1l1305:
  3239  03AB  084B               	movf	___fladd@a+3,w
  3240  03AC  3980               	andlw	128
  3241  03AD  00CC               	movwf	??___fladd
  3242  03AE  084C               	movf	??___fladd,w
  3243  03AF  00D5               	movwf	___fladd@aexp
  3244  03B0                     i1l1307:
  3245  03B0  0855               	movf	___fladd@aexp,w
  3246  03B1  0654               	xorwf	___fladd@signs,w
  3247  03B2  1903               	skipnz
  3248  03B3  2BB5               	goto	u145_21
  3249  03B4  2BB6               	goto	u145_20
  3250  03B5                     u145_21:
  3251  03B5  2BB7               	goto	i1l1311
  3252  03B6                     u145_20:
  3253  03B6                     i1l1309:
  3254  03B6  1754               	bsf	___fladd@signs,6
  3255  03B7                     i1l1311:
  3256  03B7  084B               	movf	___fladd@a+3,w
  3257  03B8  00CC               	movwf	??___fladd
  3258  03B9  074C               	addwf	??___fladd,w
  3259  03BA  00CD               	movwf	??___fladd+1
  3260  03BB  084D               	movf	??___fladd+1,w
  3261  03BC  00D5               	movwf	___fladd@aexp
  3262  03BD                     i1l1313:
  3263  03BD  1FCA               	btfss	___fladd@a+2,7
  3264  03BE  2BC0               	goto	u146_21
  3265  03BF  2BC1               	goto	u146_20
  3266  03C0                     u146_21:
  3267  03C0  2BC2               	goto	i1l1317
  3268  03C1                     u146_20:
  3269  03C1                     i1l1315:
  3270  03C1  1455               	bsf	___fladd@aexp,0
  3271  03C2                     i1l1317:
  3272  03C2  0855               	movf	___fladd@aexp,w
  3273  03C3  1903               	btfsc	3,2
  3274  03C4  2BC6               	goto	u147_21
  3275  03C5  2BC7               	goto	u147_20
  3276  03C6                     u147_21:
  3277  03C6  2BD7               	goto	i1l1327
  3278  03C7                     u147_20:
  3279  03C7                     i1l1319:
  3280  03C7  0A55               	incf	___fladd@aexp,w
  3281  03C8  1D03               	btfss	3,2
  3282  03C9  2BCB               	goto	u148_21
  3283  03CA  2BCC               	goto	u148_20
  3284  03CB                     u148_21:
  3285  03CB  2BD4               	goto	i1l1323
  3286  03CC                     u148_20:
  3287  03CC                     i1l1321:
  3288  03CC  3000               	movlw	0
  3289  03CD  00CB               	movwf	___fladd@a+3
  3290  03CE  3000               	movlw	0
  3291  03CF  00CA               	movwf	___fladd@a+2
  3292  03D0  3000               	movlw	0
  3293  03D1  00C9               	movwf	___fladd@a+1
  3294  03D2  3000               	movlw	0
  3295  03D3  00C8               	movwf	___fladd@a
  3296  03D4                     i1l1323:
  3297  03D4  17CA               	bsf	___fladd@a+2,7
  3298  03D5                     i1l1325:
  3299  03D5  01CB               	clrf	___fladd@a+3
  3300  03D6  2BDF               	goto	i1l460
  3301  03D7                     i1l1327:
  3302  03D7  3000               	movlw	0
  3303  03D8  00CB               	movwf	___fladd@a+3
  3304  03D9  3000               	movlw	0
  3305  03DA  00CA               	movwf	___fladd@a+2
  3306  03DB  3000               	movlw	0
  3307  03DC  00C9               	movwf	___fladd@a+1
  3308  03DD  3000               	movlw	0
  3309  03DE  00C8               	movwf	___fladd@a
  3310  03DF                     i1l460:
  3311  03DF  0856               	movf	___fladd@bexp,w
  3312  03E0  0255               	subwf	___fladd@aexp,w
  3313  03E1  1803               	skipnc
  3314  03E2  2BE4               	goto	u149_21
  3315  03E3  2BE5               	goto	u149_20
  3316  03E4                     u149_21:
  3317  03E4  2C29               	goto	i1l1363
  3318  03E5                     u149_20:
  3319  03E5                     i1l1329:
  3320  03E5  1F54               	btfss	___fladd@signs,6
  3321  03E6  2BE8               	goto	u150_21
  3322  03E7  2BE9               	goto	u150_20
  3323  03E8                     u150_21:
  3324  03E8  2BED               	goto	i1l1333
  3325  03E9                     u150_20:
  3326  03E9                     i1l1331:
  3327  03E9  3080               	movlw	128
  3328  03EA  00CC               	movwf	??___fladd
  3329  03EB  084C               	movf	??___fladd,w
  3330  03EC  06D4               	xorwf	___fladd@signs,f
  3331  03ED                     i1l1333:
  3332  03ED  0856               	movf	___fladd@bexp,w
  3333  03EE  00CC               	movwf	??___fladd
  3334  03EF  084C               	movf	??___fladd,w
  3335  03F0  00D7               	movwf	___fladd@grs
  3336  03F1                     i1l1335:
  3337  03F1  0855               	movf	___fladd@aexp,w
  3338  03F2  00CC               	movwf	??___fladd
  3339  03F3  084C               	movf	??___fladd,w
  3340  03F4  00D6               	movwf	___fladd@bexp
  3341  03F5                     i1l1337:
  3342  03F5  0857               	movf	___fladd@grs,w
  3343  03F6  00CC               	movwf	??___fladd
  3344  03F7  084C               	movf	??___fladd,w
  3345  03F8  00D5               	movwf	___fladd@aexp
  3346  03F9                     i1l1339:
  3347  03F9  0844               	movf	___fladd@b,w
  3348  03FA  00CC               	movwf	??___fladd
  3349  03FB  084C               	movf	??___fladd,w
  3350  03FC  00D7               	movwf	___fladd@grs
  3351  03FD                     i1l1341:
  3352  03FD  0848               	movf	___fladd@a,w
  3353  03FE  00CC               	movwf	??___fladd
  3354  03FF  084C               	movf	??___fladd,w
  3355  0400  00C4               	movwf	___fladd@b
  3356  0401                     i1l1343:
  3357  0401  0857               	movf	___fladd@grs,w
  3358  0402  00CC               	movwf	??___fladd
  3359  0403  084C               	movf	??___fladd,w
  3360  0404  00C8               	movwf	___fladd@a
  3361  0405                     i1l1345:
  3362  0405  0845               	movf	___fladd@b+1,w
  3363  0406  00CC               	movwf	??___fladd
  3364  0407  084C               	movf	??___fladd,w
  3365  0408  00D7               	movwf	___fladd@grs
  3366  0409                     i1l1347:
  3367  0409  0849               	movf	___fladd@a+1,w
  3368  040A  00CC               	movwf	??___fladd
  3369  040B  084C               	movf	??___fladd,w
  3370  040C  00C5               	movwf	___fladd@b+1
  3371  040D                     i1l1349:
  3372  040D  0857               	movf	___fladd@grs,w
  3373  040E  00CC               	movwf	??___fladd
  3374  040F  084C               	movf	??___fladd,w
  3375  0410  00C9               	movwf	___fladd@a+1
  3376  0411                     i1l1351:
  3377  0411  0846               	movf	___fladd@b+2,w
  3378  0412  00CC               	movwf	??___fladd
  3379  0413  084C               	movf	??___fladd,w
  3380  0414  00D7               	movwf	___fladd@grs
  3381  0415                     i1l1353:
  3382  0415  084A               	movf	___fladd@a+2,w
  3383  0416  00CC               	movwf	??___fladd
  3384  0417  084C               	movf	??___fladd,w
  3385  0418  00C6               	movwf	___fladd@b+2
  3386  0419                     i1l1355:
  3387  0419  0857               	movf	___fladd@grs,w
  3388  041A  00CC               	movwf	??___fladd
  3389  041B  084C               	movf	??___fladd,w
  3390  041C  00CA               	movwf	___fladd@a+2
  3391  041D                     i1l1357:
  3392  041D  0847               	movf	___fladd@b+3,w
  3393  041E  00CC               	movwf	??___fladd
  3394  041F  084C               	movf	??___fladd,w
  3395  0420  00D7               	movwf	___fladd@grs
  3396  0421                     i1l1359:
  3397  0421  084B               	movf	___fladd@a+3,w
  3398  0422  00CC               	movwf	??___fladd
  3399  0423  084C               	movf	??___fladd,w
  3400  0424  00C7               	movwf	___fladd@b+3
  3401  0425                     i1l1361:
  3402  0425  0857               	movf	___fladd@grs,w
  3403  0426  00CC               	movwf	??___fladd
  3404  0427  084C               	movf	??___fladd,w
  3405  0428  00CB               	movwf	___fladd@a+3
  3406  0429                     i1l1363:
  3407  0429  01D7               	clrf	___fladd@grs
  3408  042A                     i1l1365:
  3409  042A  0855               	movf	___fladd@aexp,w
  3410  042B  00CC               	movwf	??___fladd
  3411  042C  01CD               	clrf	??___fladd+1
  3412  042D  084D               	movf	??___fladd+1,w
  3413  042E  00CF               	movwf	??___fladd+3
  3414  042F  0856               	movf	___fladd@bexp,w
  3415  0430  024C               	subwf	??___fladd,w
  3416  0431  00CE               	movwf	??___fladd+2
  3417  0432  1C03               	skipc
  3418  0433  03CF               	decf	??___fladd+3,f
  3419  0434  084F               	movf	??___fladd+3,w
  3420  0435  3A80               	xorlw	128
  3421  0436  00FF               	movwf	btemp+1
  3422  0437  3080               	movlw	128
  3423  0438  027F               	subwf	btemp+1,w
  3424  0439  1D03               	skipz
  3425  043A  2C3D               	goto	u151_25
  3426  043B  301A               	movlw	26
  3427  043C  024E               	subwf	??___fladd+2,w
  3428  043D                     u151_25:
  3429  043D  1C03               	skipc
  3430  043E  2C40               	goto	u151_21
  3431  043F  2C41               	goto	u151_20
  3432  0440                     u151_21:
  3433  0440  2C7E               	goto	i1l1381
  3434  0441                     u151_20:
  3435  0441                     i1l1367:
  3436  0441  1283               	bcf	3,5	;RP0=0, select bank0
  3437  0442  1303               	bcf	3,6	;RP1=0, select bank0
  3438  0443  0847               	movf	___fladd@b+3,w
  3439  0444  0446               	iorwf	___fladd@b+2,w
  3440  0445  0445               	iorwf	___fladd@b+1,w
  3441  0446  0444               	iorwf	___fladd@b,w
  3442  0447  1D03               	skipz
  3443  0448  2C4A               	goto	u152_21
  3444  0449  2C4C               	goto	u152_20
  3445  044A                     u152_21:
  3446  044A  3001               	movlw	1
  3447  044B  2C4D               	goto	u153_20
  3448  044C                     u152_20:
  3449  044C  3000               	movlw	0
  3450  044D                     u153_20:
  3451  044D  00CC               	movwf	??___fladd
  3452  044E  084C               	movf	??___fladd,w
  3453  044F  00D7               	movwf	___fladd@grs
  3454  0450  3000               	movlw	0
  3455  0451  00C7               	movwf	___fladd@b+3
  3456  0452  3000               	movlw	0
  3457  0453  00C6               	movwf	___fladd@b+2
  3458  0454  3000               	movlw	0
  3459  0455  00C5               	movwf	___fladd@b+1
  3460  0456  3000               	movlw	0
  3461  0457  00C4               	movwf	___fladd@b
  3462  0458  0855               	movf	___fladd@aexp,w
  3463  0459  00CC               	movwf	??___fladd
  3464  045A  084C               	movf	??___fladd,w
  3465  045B  00D6               	movwf	___fladd@bexp
  3466  045C  2C86               	goto	i1l464
  3467  045D                     i1l466:
  3468  045D  1C57               	btfss	___fladd@grs,0
  3469  045E  2C60               	goto	u154_21
  3470  045F  2C61               	goto	u154_20
  3471  0460                     u154_21:
  3472  0460  2C6A               	goto	i1l1371
  3473  0461                     u154_20:
  3474  0461                     i1l1369:
  3475  0461  0857               	movf	___fladd@grs,w
  3476  0462  00CC               	movwf	??___fladd
  3477  0463  1003               	clrc
  3478  0464  0C4C               	rrf	??___fladd,w
  3479  0465  3801               	iorlw	1
  3480  0466  00CD               	movwf	??___fladd+1
  3481  0467  084D               	movf	??___fladd+1,w
  3482  0468  00D7               	movwf	___fladd@grs
  3483  0469  2C6C               	goto	i1l1373
  3484  046A                     i1l1371:
  3485  046A  1003               	clrc
  3486  046B  0CD7               	rrf	___fladd@grs,f
  3487  046C                     i1l1373:
  3488  046C  1C44               	btfss	___fladd@b,0
  3489  046D  2C6F               	goto	u155_21
  3490  046E  2C70               	goto	u155_20
  3491  046F                     u155_21:
  3492  046F  2C71               	goto	i1l1377
  3493  0470                     u155_20:
  3494  0470                     i1l1375:
  3495  0470  17D7               	bsf	___fladd@grs,7
  3496  0471                     i1l1377:
  3497  0471  3001               	movlw	1
  3498  0472  00CC               	movwf	??___fladd
  3499  0473                     u156_25:
  3500  0473  0D47               	rlf	___fladd@b+3,w
  3501  0474  0CC7               	rrf	___fladd@b+3,f
  3502  0475  0CC6               	rrf	___fladd@b+2,f
  3503  0476  0CC5               	rrf	___fladd@b+1,f
  3504  0477  0CC4               	rrf	___fladd@b,f
  3505  0478  0BCC               	decfsz	??___fladd& (0+127),f
  3506  0479  2C73               	goto	u156_25
  3507  047A                     i1l1379:
  3508  047A  3001               	movlw	1
  3509  047B  00CC               	movwf	??___fladd
  3510  047C  084C               	movf	??___fladd,w
  3511  047D  07D6               	addwf	___fladd@bexp,f
  3512  047E                     i1l1381:
  3513  047E  1283               	bcf	3,5	;RP0=0, select bank0
  3514  047F  1303               	bcf	3,6	;RP1=0, select bank0
  3515  0480  0855               	movf	___fladd@aexp,w
  3516  0481  0256               	subwf	___fladd@bexp,w
  3517  0482  1C03               	skipc
  3518  0483  2C85               	goto	u157_21
  3519  0484  2C86               	goto	u157_20
  3520  0485                     u157_21:
  3521  0485  2C5D               	goto	i1l466
  3522  0486                     u157_20:
  3523  0486                     i1l464:
  3524  0486  1B54               	btfsc	___fladd@signs,6
  3525  0487  2C89               	goto	u158_21
  3526  0488  2C8A               	goto	u158_20
  3527  0489                     u158_21:
  3528  0489  2CD5               	goto	i1l1407
  3529  048A                     u158_20:
  3530  048A                     i1l1383:
  3531  048A  0856               	movf	___fladd@bexp,w
  3532  048B  1D03               	btfss	3,2
  3533  048C  2C8E               	goto	u159_21
  3534  048D  2C8F               	goto	u159_20
  3535  048E                     u159_21:
  3536  048E  2C98               	goto	i1l1389
  3537  048F                     u159_20:
  3538  048F                     i1l1385:
  3539  048F  3000               	movlw	0
  3540  0490  00C7               	movwf	?___fladd+3
  3541  0491  3000               	movlw	0
  3542  0492  00C6               	movwf	?___fladd+2
  3543  0493  3000               	movlw	0
  3544  0494  00C5               	movwf	?___fladd+1
  3545  0495  3000               	movlw	0
  3546  0496  00C4               	movwf	?___fladd
  3547  0497  2E03               	goto	i1l473
  3548  0498                     i1l1389:
  3549  0498  0848               	movf	___fladd@a,w
  3550  0499  07C4               	addwf	___fladd@b,f
  3551  049A  0849               	movf	___fladd@a+1,w
  3552  049B  1103               	clrz
  3553  049C  1803               	skipnc
  3554  049D  3E01               	addlw	1
  3555  049E  1903               	skipnz
  3556  049F  2CA1               	goto	u160_21
  3557  04A0  07C5               	addwf	___fladd@b+1,f
  3558  04A1                     u160_21:
  3559  04A1  084A               	movf	___fladd@a+2,w
  3560  04A2  1103               	clrz
  3561  04A3  1803               	skipnc
  3562  04A4  3E01               	addlw	1
  3563  04A5  1903               	skipnz
  3564  04A6  2CA8               	goto	u160_22
  3565  04A7  07C6               	addwf	___fladd@b+2,f
  3566  04A8                     u160_22:
  3567  04A8  084B               	movf	___fladd@a+3,w
  3568  04A9  1103               	clrz
  3569  04AA  1803               	skipnc
  3570  04AB  3E01               	addlw	1
  3571  04AC  1903               	skipnz
  3572  04AD  2CAF               	goto	u160_23
  3573  04AE  07C7               	addwf	___fladd@b+3,f
  3574  04AF                     u160_23:
  3575  04AF                     i1l1391:
  3576  04AF  1C47               	btfss	___fladd@b+3,0
  3577  04B0  2CB2               	goto	u161_21
  3578  04B1  2CB3               	goto	u161_20
  3579  04B2                     u161_21:
  3580  04B2  2D89               	goto	i1l1441
  3581  04B3                     u161_20:
  3582  04B3                     i1l1393:
  3583  04B3  1C57               	btfss	___fladd@grs,0
  3584  04B4  2CB6               	goto	u162_21
  3585  04B5  2CB7               	goto	u162_20
  3586  04B6                     u162_21:
  3587  04B6  2CC0               	goto	i1l1397
  3588  04B7                     u162_20:
  3589  04B7                     i1l1395:
  3590  04B7  0857               	movf	___fladd@grs,w
  3591  04B8  00CC               	movwf	??___fladd
  3592  04B9  1003               	clrc
  3593  04BA  0C4C               	rrf	??___fladd,w
  3594  04BB  3801               	iorlw	1
  3595  04BC  00CD               	movwf	??___fladd+1
  3596  04BD  084D               	movf	??___fladd+1,w
  3597  04BE  00D7               	movwf	___fladd@grs
  3598  04BF  2CC2               	goto	i1l1399
  3599  04C0                     i1l1397:
  3600  04C0  1003               	clrc
  3601  04C1  0CD7               	rrf	___fladd@grs,f
  3602  04C2                     i1l1399:
  3603  04C2  1C44               	btfss	___fladd@b,0
  3604  04C3  2CC5               	goto	u163_21
  3605  04C4  2CC6               	goto	u163_20
  3606  04C5                     u163_21:
  3607  04C5  2CC7               	goto	i1l1403
  3608  04C6                     u163_20:
  3609  04C6                     i1l1401:
  3610  04C6  17D7               	bsf	___fladd@grs,7
  3611  04C7                     i1l1403:
  3612  04C7  3001               	movlw	1
  3613  04C8  00CC               	movwf	??___fladd
  3614  04C9                     u164_25:
  3615  04C9  0D47               	rlf	___fladd@b+3,w
  3616  04CA  0CC7               	rrf	___fladd@b+3,f
  3617  04CB  0CC6               	rrf	___fladd@b+2,f
  3618  04CC  0CC5               	rrf	___fladd@b+1,f
  3619  04CD  0CC4               	rrf	___fladd@b,f
  3620  04CE  0BCC               	decfsz	??___fladd& (0+127),f
  3621  04CF  2CC9               	goto	u164_25
  3622  04D0                     i1l1405:
  3623  04D0  3001               	movlw	1
  3624  04D1  00CC               	movwf	??___fladd
  3625  04D2  084C               	movf	??___fladd,w
  3626  04D3  07D6               	addwf	___fladd@bexp,f
  3627  04D4  2D89               	goto	i1l1441
  3628  04D5                     i1l1407:
  3629  04D5  0847               	movf	___fladd@b+3,w
  3630  04D6  3A80               	xorlw	128
  3631  04D7  00FF               	movwf	btemp+1
  3632  04D8  084B               	movf	___fladd@a+3,w
  3633  04D9  3A80               	xorlw	128
  3634  04DA  027F               	subwf	btemp+1,w
  3635  04DB  1D03               	skipz
  3636  04DC  2CE7               	goto	u165_23
  3637  04DD  084A               	movf	___fladd@a+2,w
  3638  04DE  0246               	subwf	___fladd@b+2,w
  3639  04DF  1D03               	skipz
  3640  04E0  2CE7               	goto	u165_23
  3641  04E1  0849               	movf	___fladd@a+1,w
  3642  04E2  0245               	subwf	___fladd@b+1,w
  3643  04E3  1D03               	skipz
  3644  04E4  2CE7               	goto	u165_23
  3645  04E5  0848               	movf	___fladd@a,w
  3646  04E6  0244               	subwf	___fladd@b,w
  3647  04E7                     u165_23:
  3648  04E7  1803               	skipnc
  3649  04E8  2CEA               	goto	u165_21
  3650  04E9  2CEB               	goto	u165_20
  3651  04EA                     u165_21:
  3652  04EA  2D43               	goto	i1l1417
  3653  04EB                     u165_20:
  3654  04EB                     i1l1409:
  3655  04EB  30FF               	movlw	255
  3656  04EC  00CC               	movwf	??___fladd
  3657  04ED  30FF               	movlw	255
  3658  04EE  00CD               	movwf	??___fladd+1
  3659  04EF  30FF               	movlw	255
  3660  04F0  00CE               	movwf	??___fladd+2
  3661  04F1  30FF               	movlw	255
  3662  04F2  00CF               	movwf	??___fladd+3
  3663  04F3  0848               	movf	___fladd@a,w
  3664  04F4  00D0               	movwf	??___fladd+4
  3665  04F5  0849               	movf	___fladd@a+1,w
  3666  04F6  00D1               	movwf	??___fladd+5
  3667  04F7  084A               	movf	___fladd@a+2,w
  3668  04F8  00D2               	movwf	??___fladd+6
  3669  04F9  084B               	movf	___fladd@a+3,w
  3670  04FA  00D3               	movwf	??___fladd+7
  3671  04FB  0844               	movf	___fladd@b,w
  3672  04FC  02D0               	subwf	??___fladd+4,f
  3673  04FD  0845               	movf	___fladd@b+1,w
  3674  04FE  1C03               	skipc
  3675  04FF  0F45               	incfsz	___fladd@b+1,w
  3676  0500  2D02               	goto	u166_21
  3677  0501  2D03               	goto	u166_22
  3678  0502                     u166_21:
  3679  0502  02D1               	subwf	??___fladd+5,f
  3680  0503                     u166_22:
  3681  0503  0846               	movf	___fladd@b+2,w
  3682  0504  1C03               	skipc
  3683  0505  0F46               	incfsz	___fladd@b+2,w
  3684  0506  2D08               	goto	u166_23
  3685  0507  2D09               	goto	u166_24
  3686  0508                     u166_23:
  3687  0508  02D2               	subwf	??___fladd+6,f
  3688  0509                     u166_24:
  3689  0509  0847               	movf	___fladd@b+3,w
  3690  050A  1C03               	skipc
  3691  050B  0F47               	incfsz	___fladd@b+3,w
  3692  050C  2D0E               	goto	u166_25
  3693  050D  2D0F               	goto	u166_26
  3694  050E                     u166_25:
  3695  050E  02D3               	subwf	??___fladd+7,f
  3696  050F                     u166_26:
  3697  050F  0850               	movf	??___fladd+4,w
  3698  0510  07CC               	addwf	??___fladd,f
  3699  0511  0851               	movf	??___fladd+5,w
  3700  0512  1803               	skipnc
  3701  0513  0F51               	incfsz	??___fladd+5,w
  3702  0514  2D16               	goto	u167_20
  3703  0515  2D17               	goto	u167_21
  3704  0516                     u167_20:
  3705  0516  07CD               	addwf	??___fladd+1,f
  3706  0517                     u167_21:
  3707  0517  0852               	movf	??___fladd+6,w
  3708  0518  1803               	skipnc
  3709  0519  0F52               	incfsz	??___fladd+6,w
  3710  051A  2D1C               	goto	u167_22
  3711  051B  2D1D               	goto	u167_23
  3712  051C                     u167_22:
  3713  051C  07CE               	addwf	??___fladd+2,f
  3714  051D                     u167_23:
  3715  051D  0853               	movf	??___fladd+7,w
  3716  051E  1803               	skipnc
  3717  051F  0A53               	incf	??___fladd+7,w
  3718  0520  07CF               	addwf	??___fladd+3,f
  3719  0521  084F               	movf	??___fladd+3,w
  3720  0522  00C7               	movwf	___fladd@b+3
  3721  0523  084E               	movf	??___fladd+2,w
  3722  0524  00C6               	movwf	___fladd@b+2
  3723  0525  084D               	movf	??___fladd+1,w
  3724  0526  00C5               	movwf	___fladd@b+1
  3725  0527  084C               	movf	??___fladd,w
  3726  0528  00C4               	movwf	___fladd@b
  3727  0529                     i1l1411:
  3728  0529  3080               	movlw	128
  3729  052A  00CC               	movwf	??___fladd
  3730  052B  084C               	movf	??___fladd,w
  3731  052C  06D4               	xorwf	___fladd@signs,f
  3732  052D  09D7               	comf	___fladd@grs,f
  3733  052E  0AD7               	incf	___fladd@grs,f
  3734  052F                     i1l1413:
  3735  052F  0857               	movf	___fladd@grs,w
  3736  0530  1D03               	btfss	3,2
  3737  0531  2D33               	goto	u168_21
  3738  0532  2D34               	goto	u168_20
  3739  0533                     u168_21:
  3740  0533  2D51               	goto	i1l481
  3741  0534                     u168_20:
  3742  0534                     i1l1415:
  3743  0534  3001               	movlw	1
  3744  0535  07C4               	addwf	___fladd@b,f
  3745  0536  3000               	movlw	0
  3746  0537  1803               	skipnc
  3747  0538  3001               	movlw	1
  3748  0539  07C5               	addwf	___fladd@b+1,f
  3749  053A  3000               	movlw	0
  3750  053B  1803               	skipnc
  3751  053C  3001               	movlw	1
  3752  053D  07C6               	addwf	___fladd@b+2,f
  3753  053E  3000               	movlw	0
  3754  053F  1803               	skipnc
  3755  0540  3001               	movlw	1
  3756  0541  07C7               	addwf	___fladd@b+3,f
  3757  0542  2D51               	goto	i1l481
  3758  0543                     i1l1417:
  3759  0543  0848               	movf	___fladd@a,w
  3760  0544  02C4               	subwf	___fladd@b,f
  3761  0545  0849               	movf	___fladd@a+1,w
  3762  0546  1C03               	skipc
  3763  0547  0F49               	incfsz	___fladd@a+1,w
  3764  0548  02C5               	subwf	___fladd@b+1,f
  3765  0549  084A               	movf	___fladd@a+2,w
  3766  054A  1C03               	skipc
  3767  054B  0F4A               	incfsz	___fladd@a+2,w
  3768  054C  02C6               	subwf	___fladd@b+2,f
  3769  054D  084B               	movf	___fladd@a+3,w
  3770  054E  1C03               	skipc
  3771  054F  0F4B               	incfsz	___fladd@a+3,w
  3772  0550  02C7               	subwf	___fladd@b+3,f
  3773  0551                     i1l481:
  3774  0551  0847               	movf	___fladd@b+3,w
  3775  0552  0446               	iorwf	___fladd@b+2,w
  3776  0553  0445               	iorwf	___fladd@b+1,w
  3777  0554  0444               	iorwf	___fladd@b,w
  3778  0555  1D03               	skipz
  3779  0556  2D58               	goto	u169_21
  3780  0557  2D59               	goto	u169_20
  3781  0558                     u169_21:
  3782  0558  2D85               	goto	i1l1439
  3783  0559                     u169_20:
  3784  0559                     i1l1419:
  3785  0559  0857               	movf	___fladd@grs,w
  3786  055A  1D03               	btfss	3,2
  3787  055B  2D5D               	goto	u170_21
  3788  055C  2D5E               	goto	u170_20
  3789  055D                     u170_21:
  3790  055D  2D85               	goto	i1l1439
  3791  055E                     u170_20:
  3792  055E                     i1l1421:
  3793  055E  3000               	movlw	0
  3794  055F  00C7               	movwf	?___fladd+3
  3795  0560  3000               	movlw	0
  3796  0561  00C6               	movwf	?___fladd+2
  3797  0562  3000               	movlw	0
  3798  0563  00C5               	movwf	?___fladd+1
  3799  0564  3000               	movlw	0
  3800  0565  00C4               	movwf	?___fladd
  3801  0566  2E03               	goto	i1l473
  3802  0567                     i1l1425:
  3803  0567  3001               	movlw	1
  3804  0568  00CC               	movwf	??___fladd
  3805  0569                     u171_25:
  3806  0569  1003               	clrc
  3807  056A  0DC4               	rlf	___fladd@b,f
  3808  056B  0DC5               	rlf	___fladd@b+1,f
  3809  056C  0DC6               	rlf	___fladd@b+2,f
  3810  056D  0DC7               	rlf	___fladd@b+3,f
  3811  056E  0BCC               	decfsz	??___fladd,f
  3812  056F  2D69               	goto	u171_25
  3813  0570                     i1l1427:
  3814  0570  1FD7               	btfss	___fladd@grs,7
  3815  0571  2D73               	goto	u172_21
  3816  0572  2D74               	goto	u172_20
  3817  0573                     u172_21:
  3818  0573  2D75               	goto	i1l485
  3819  0574                     u172_20:
  3820  0574                     i1l1429:
  3821  0574  1444               	bsf	___fladd@b,0
  3822  0575                     i1l485:
  3823  0575  1C57               	btfss	___fladd@grs,0
  3824  0576  2D78               	goto	u173_21
  3825  0577  2D79               	goto	u173_20
  3826  0578                     u173_21:
  3827  0578  2D7C               	goto	i1l1433
  3828  0579                     u173_20:
  3829  0579                     i1l1431:
  3830  0579  1403               	setc
  3831  057A  0DD7               	rlf	___fladd@grs,f
  3832  057B  2D7E               	goto	i1l1435
  3833  057C                     i1l1433:
  3834  057C  1003               	clrc
  3835  057D  0DD7               	rlf	___fladd@grs,f
  3836  057E                     i1l1435:
  3837  057E  0856               	movf	___fladd@bexp,w
  3838  057F  1903               	btfsc	3,2
  3839  0580  2D82               	goto	u174_21
  3840  0581  2D83               	goto	u174_20
  3841  0582                     u174_21:
  3842  0582  2D85               	goto	i1l1439
  3843  0583                     u174_20:
  3844  0583                     i1l1437:
  3845  0583  3001               	movlw	1
  3846  0584  02D6               	subwf	___fladd@bexp,f
  3847  0585                     i1l1439:
  3848  0585  1FC6               	btfss	___fladd@b+2,7
  3849  0586  2D88               	goto	u175_21
  3850  0587  2D89               	goto	u175_20
  3851  0588                     u175_21:
  3852  0588  2D67               	goto	i1l1425
  3853  0589                     u175_20:
  3854  0589                     i1l1441:
  3855  0589  01D5               	clrf	___fladd@aexp
  3856  058A                     i1l1443:
  3857  058A  1FD7               	btfss	___fladd@grs,7
  3858  058B  2D8D               	goto	u176_21
  3859  058C  2D8E               	goto	u176_20
  3860  058D                     u176_21:
  3861  058D  2D9C               	goto	i1l1451
  3862  058E                     u176_20:
  3863  058E                     i1l1445:
  3864  058E  0857               	movf	___fladd@grs,w
  3865  058F  397F               	andlw	127
  3866  0590  1903               	btfsc	3,2
  3867  0591  2D93               	goto	u177_21
  3868  0592  2D94               	goto	u177_20
  3869  0593                     u177_21:
  3870  0593  2D97               	goto	i1l491
  3871  0594                     u177_20:
  3872  0594                     i1l1447:
  3873  0594  01D5               	clrf	___fladd@aexp
  3874  0595  0AD5               	incf	___fladd@aexp,f
  3875  0596  2D9C               	goto	i1l1451
  3876  0597                     i1l491:
  3877  0597  1C44               	btfss	___fladd@b,0
  3878  0598  2D9A               	goto	u178_21
  3879  0599  2D9B               	goto	u178_20
  3880  059A                     u178_21:
  3881  059A  2D9C               	goto	i1l1451
  3882  059B                     u178_20:
  3883  059B  2D94               	goto	i1l1447
  3884  059C                     i1l1451:
  3885  059C  0855               	movf	___fladd@aexp,w
  3886  059D  1903               	btfsc	3,2
  3887  059E  2DA0               	goto	u179_21
  3888  059F  2DA1               	goto	u179_20
  3889  05A0                     u179_21:
  3890  05A0  2DD5               	goto	i1l494
  3891  05A1                     u179_20:
  3892  05A1                     i1l1453:
  3893  05A1  3001               	movlw	1
  3894  05A2  07C4               	addwf	___fladd@b,f
  3895  05A3  3000               	movlw	0
  3896  05A4  1803               	skipnc
  3897  05A5  3001               	movlw	1
  3898  05A6  07C5               	addwf	___fladd@b+1,f
  3899  05A7  3000               	movlw	0
  3900  05A8  1803               	skipnc
  3901  05A9  3001               	movlw	1
  3902  05AA  07C6               	addwf	___fladd@b+2,f
  3903  05AB  3000               	movlw	0
  3904  05AC  1803               	skipnc
  3905  05AD  3001               	movlw	1
  3906  05AE  07C7               	addwf	___fladd@b+3,f
  3907  05AF                     i1l1455:
  3908  05AF  1C47               	btfss	___fladd@b+3,0
  3909  05B0  2DB2               	goto	u180_21
  3910  05B1  2DB3               	goto	u180_20
  3911  05B2                     u180_21:
  3912  05B2  2DD5               	goto	i1l494
  3913  05B3                     u180_20:
  3914  05B3                     i1l1457:
  3915  05B3  0844               	movf	___fladd@b,w
  3916  05B4  00CC               	movwf	??___fladd
  3917  05B5  0845               	movf	___fladd@b+1,w
  3918  05B6  00CD               	movwf	??___fladd+1
  3919  05B7  0846               	movf	___fladd@b+2,w
  3920  05B8  00CE               	movwf	??___fladd+2
  3921  05B9  0847               	movf	___fladd@b+3,w
  3922  05BA  00CF               	movwf	??___fladd+3
  3923  05BB  3001               	movlw	1
  3924  05BC  00D0               	movwf	??___fladd+4
  3925  05BD                     u181_25:
  3926  05BD  0D4F               	rlf	??___fladd+3,w
  3927  05BE  0CCF               	rrf	??___fladd+3,f
  3928  05BF  0CCE               	rrf	??___fladd+2,f
  3929  05C0  0CCD               	rrf	??___fladd+1,f
  3930  05C1  0CCC               	rrf	??___fladd,f
  3931  05C2                     u181_20:
  3932  05C2  0BD0               	decfsz	??___fladd+4,f
  3933  05C3  2DBD               	goto	u181_25
  3934  05C4  084F               	movf	??___fladd+3,w
  3935  05C5  00C7               	movwf	___fladd@b+3
  3936  05C6  084E               	movf	??___fladd+2,w
  3937  05C7  00C6               	movwf	___fladd@b+2
  3938  05C8  084D               	movf	??___fladd+1,w
  3939  05C9  00C5               	movwf	___fladd@b+1
  3940  05CA  084C               	movf	??___fladd,w
  3941  05CB  00C4               	movwf	___fladd@b
  3942  05CC  0A56               	incf	___fladd@bexp,w
  3943  05CD  1903               	btfsc	3,2
  3944  05CE  2DD0               	goto	u182_21
  3945  05CF  2DD1               	goto	u182_20
  3946  05D0                     u182_21:
  3947  05D0  2DD5               	goto	i1l494
  3948  05D1                     u182_20:
  3949  05D1                     i1l1459:
  3950  05D1  3001               	movlw	1
  3951  05D2  00CC               	movwf	??___fladd
  3952  05D3  084C               	movf	??___fladd,w
  3953  05D4  07D6               	addwf	___fladd@bexp,f
  3954  05D5                     i1l494:
  3955  05D5  0A56               	incf	___fladd@bexp,w
  3956  05D6  1903               	btfsc	3,2
  3957  05D7  2DD9               	goto	u183_21
  3958  05D8  2DDA               	goto	u183_20
  3959  05D9                     u183_21:
  3960  05D9  2DDF               	goto	i1l1463
  3961  05DA                     u183_20:
  3962  05DA                     i1l1461:
  3963  05DA  0856               	movf	___fladd@bexp,w
  3964  05DB  1D03               	btfss	3,2
  3965  05DC  2DDE               	goto	u184_21
  3966  05DD  2DDF               	goto	u184_20
  3967  05DE                     u184_21:
  3968  05DE  2DED               	goto	i1l1469
  3969  05DF                     u184_20:
  3970  05DF                     i1l1463:
  3971  05DF  3000               	movlw	0
  3972  05E0  00C7               	movwf	___fladd@b+3
  3973  05E1  3000               	movlw	0
  3974  05E2  00C6               	movwf	___fladd@b+2
  3975  05E3  3000               	movlw	0
  3976  05E4  00C5               	movwf	___fladd@b+1
  3977  05E5  3000               	movlw	0
  3978  05E6  00C4               	movwf	___fladd@b
  3979  05E7                     i1l1465:
  3980  05E7  0856               	movf	___fladd@bexp,w
  3981  05E8  1D03               	btfss	3,2
  3982  05E9  2DEB               	goto	u185_21
  3983  05EA  2DEC               	goto	u185_20
  3984  05EB                     u185_21:
  3985  05EB  2DED               	goto	i1l1469
  3986  05EC                     u185_20:
  3987  05EC                     i1l1467:
  3988  05EC  01D4               	clrf	___fladd@signs
  3989  05ED                     i1l1469:
  3990  05ED  1C56               	btfss	___fladd@bexp,0
  3991  05EE  2DF0               	goto	u186_21
  3992  05EF  2DF1               	goto	u186_20
  3993  05F0                     u186_21:
  3994  05F0  2DF3               	goto	i1l1473
  3995  05F1                     u186_20:
  3996  05F1                     i1l1471:
  3997  05F1  17C6               	bsf	___fladd@b+2,7
  3998  05F2  2DF7               	goto	i1l502
  3999  05F3                     i1l1473:
  4000  05F3  307F               	movlw	127
  4001  05F4  00CC               	movwf	??___fladd
  4002  05F5  084C               	movf	??___fladd,w
  4003  05F6  05C6               	andwf	___fladd@b+2,f
  4004  05F7                     i1l502:
  4005  05F7  0856               	movf	___fladd@bexp,w
  4006  05F8  00CC               	movwf	??___fladd
  4007  05F9  1003               	clrc
  4008  05FA  0C4C               	rrf	??___fladd,w
  4009  05FB  00CD               	movwf	??___fladd+1
  4010  05FC  084D               	movf	??___fladd+1,w
  4011  05FD  00C7               	movwf	___fladd@b+3
  4012  05FE                     i1l1475:
  4013  05FE  1FD4               	btfss	___fladd@signs,7
  4014  05FF  2E01               	goto	u187_21
  4015  0600  2E02               	goto	u187_20
  4016  0601                     u187_21:
  4017  0601  2E03               	goto	i1l503
  4018  0602                     u187_20:
  4019  0602                     i1l1477:
  4020  0602  17C7               	bsf	___fladd@b+3,7
  4021  0603                     i1l503:
  4022  0603                     i1l473:
  4023  0603  0008               	return
  4024  0604                     __end_of___fladd:
  4025  007E                     btemp	set	126	;btemp
  4026  007E                     wtemp0	set	126
  4027                           
  4028                           	psect	idloc
  4029                           
  4030                           ;Config register IDLOC0 @ 0x2000
  4031                           ;	unspecified, using default values
  4032  2000                     	org	8192
  4033  2000  3FFF               	dw	16383
  4034                           
  4035                           ;Config register IDLOC1 @ 0x2001
  4036                           ;	unspecified, using default values
  4037  2001                     	org	8193
  4038  2001  3FFF               	dw	16383
  4039                           
  4040                           ;Config register IDLOC2 @ 0x2002
  4041                           ;	unspecified, using default values
  4042  2002                     	org	8194
  4043  2002  3FFF               	dw	16383
  4044                           
  4045                           ;Config register IDLOC3 @ 0x2003
  4046                           ;	unspecified, using default values
  4047  2003                     	org	8195
  4048  2003  3FFF               	dw	16383
  4049                           
  4050                           	psect	config
  4051                           
  4052                           ;Config register CONFIG1 @ 0x2007
  4053                           ;	Oscillator Selection bits
  4054                           ;	FOSC = INTRC_NOCLKOUT, INTOSCIO oscillator: I/O function on RA6/OSC2/CLKOUT pin, I/O f
      +                          unction on RA7/OSC1/CLKIN
  4055                           ;	Watchdog Timer Enable bit
  4056                           ;	WDTE = OFF, WDT disabled and can be enabled by SWDTEN bit of the WDTCON register
  4057                           ;	Power-up Timer Enable bit
  4058                           ;	PWRTE = OFF, PWRT disabled
  4059                           ;	RE3/MCLR pin function select bit
  4060                           ;	MCLRE = OFF, RE3/MCLR pin function is digital input, MCLR internally tied to VDD
  4061                           ;	Code Protection bit
  4062                           ;	CP = OFF, Program memory code protection is disabled
  4063                           ;	Data Code Protection bit
  4064                           ;	CPD = OFF, Data memory code protection is disabled
  4065                           ;	Brown Out Reset Selection bits
  4066                           ;	BOREN = OFF, BOR disabled
  4067                           ;	Internal External Switchover bit
  4068                           ;	IESO = OFF, Internal/External Switchover mode is disabled
  4069                           ;	Fail-Safe Clock Monitor Enabled bit
  4070                           ;	FCMEN = OFF, Fail-Safe Clock Monitor is disabled
  4071                           ;	Low Voltage Programming Enable bit
  4072                           ;	LVP = OFF, RB3 pin has digital I/O, HV on MCLR must be used for programming
  4073                           ;	In-Circuit Debugger Mode bit
  4074                           ;	DEBUG = 0x1, unprogrammed default
  4075  2007                     	org	8199
  4076  2007  20D4               	dw	8404
  4077                           
  4078                           ;Config register CONFIG2 @ 0x2008
  4079                           ;	Brown-out Reset Selection bit
  4080                           ;	BOR4V = BOR40V, Brown-out Reset set to 4.0V
  4081                           ;	Flash Program Memory Self Write Enable bits
  4082                           ;	WRT = OFF, Write protection off
  4083  2008                     	org	8200
  4084  2008  3FFF               	dw	16383

Data Sizes:
    Strings     0
    Constant    0
    Data        0
    BSS         2
    Persistent  0
    Stack       0

Auto Spaces:
    Space          Size  Autos    Used
    COMMON           14     14      14
    BANK0            80     76      78
    BANK1            80      5       5
    BANK3            96      0       0
    BANK2            96      0       0

Pointer List with Targets:

    None.

Critical Paths under _main in COMMON

    None.

Critical Paths under _isr in COMMON

    _map->___fltol
    ___xxtofl->___lwdiv
    ___fltol->___xxtofl
    ___flmul->___xxtofl
    ___fladd->___xxtofl

Critical Paths under _main in BANK0

    None.

Critical Paths under _isr in BANK0

    _isr->_map
    _map->___fltol
    ___fltol->___fladd
    ___flmul->___xxtofl
    ___fladd->___flmul

Critical Paths under _main in BANK1

    None.

Critical Paths under _isr in BANK1

    None.

Critical Paths under _main in BANK3

    None.

Critical Paths under _isr in BANK3

    None.

Critical Paths under _main in BANK2

    None.

Critical Paths under _isr in BANK2

    None.

Call Graph Tables:

 ---------------------------------------------------------------------------------
 (Depth) Function   	        Calls       Base Space   Used Autos Params    Refs
 ---------------------------------------------------------------------------------
 (0) _main                                                 0     0      0       0
                                _clk
                              _setup
                          _setup_adc
                          _setup_ccp
                          _setup_int
                          _setup_pwm
                             _timer2
 ---------------------------------------------------------------------------------
 (1) _timer2                                               0     0      0       0
 ---------------------------------------------------------------------------------
 (1) _setup_pwm                                            0     0      0       0
 ---------------------------------------------------------------------------------
 (1) _setup_int                                            0     0      0       0
 ---------------------------------------------------------------------------------
 (1) _setup_ccp                                            0     0      0       0
 ---------------------------------------------------------------------------------
 (1) _setup_adc                                            0     0      0       0
 ---------------------------------------------------------------------------------
 (1) _setup                                                0     0      0       0
 ---------------------------------------------------------------------------------
 (1) _clk                                                  0     0      0       0
 ---------------------------------------------------------------------------------
 Estimated maximum stack depth 1
 ---------------------------------------------------------------------------------
 (Depth) Function   	        Calls       Base Space   Used Autos Params    Refs
 ---------------------------------------------------------------------------------
 (2) _isr                                                  5     5      0    6306
                                              0 BANK1      5     5      0
                                _map
 ---------------------------------------------------------------------------------
 (3) _map                                                 11     5      6    6306
                                             65 BANK0     11     5      6
                            ___fladd
                            ___flmul
                            ___fltol
                            ___lwdiv
                           ___xxtofl
 ---------------------------------------------------------------------------------
 (4) ___xxtofl                                            14    10      4     550
                                              8 COMMON     4     0      4
                                              0 BANK0     10    10      0
                            ___lwdiv (ARG)
 ---------------------------------------------------------------------------------
 (4) ___lwdiv                                              8     4      4     314
                                              0 COMMON     8     4      4
 ---------------------------------------------------------------------------------
 (4) ___fltol                                             11     7      4     305
                                             12 COMMON     2     2      0
                                             56 BANK0      9     5      4
                            ___fladd (ARG)
                            ___flmul (ARG)
                            ___lwdiv (ARG)
                           ___xxtofl (ARG)
 ---------------------------------------------------------------------------------
 (4) ___flmul                                             26    18      8    2417
                                             10 BANK0     26    18      8
                          __Umul8_16
                            ___lwdiv (ARG)
                           ___xxtofl (ARG)
 ---------------------------------------------------------------------------------
 (5) __Umul8_16                                            9     7      2     799
                                              0 COMMON     9     7      2
 ---------------------------------------------------------------------------------
 (4) ___fladd                                             20    12      8    2262
                                             36 BANK0     20    12      8
                            ___flmul (ARG)
                            ___lwdiv (ARG)
                           ___xxtofl (ARG)
 ---------------------------------------------------------------------------------
 Estimated maximum stack depth 5
 ---------------------------------------------------------------------------------

 Call Graph Graphs:

 _main (ROOT)
   _clk
   _setup
   _setup_adc
   _setup_ccp
   _setup_int
   _setup_pwm
   _timer2

 _isr (ROOT)
   _map
     ___fladd
       ___flmul (ARG)
         __Umul8_16
         ___lwdiv (ARG)
         ___xxtofl (ARG)
           ___lwdiv (ARG)
       ___lwdiv (ARG)
       ___xxtofl (ARG)
     ___flmul
     ___fltol
       ___fladd (ARG)
       ___flmul (ARG)
       ___lwdiv (ARG)
       ___xxtofl (ARG)
     ___lwdiv
     ___xxtofl

 Address spaces:
Name               Size   Autos  Total    Cost      Usage
BITCOMMON            E      0       0       0        0.0%
EEDATA             100      0       0       0        0.0%
NULL                 0      0       0       0        0.0%
CODE                 0      0       0       0        0.0%
COMMON               E      E       E       1      100.0%
BITSFR0              0      0       0       1        0.0%
SFR0                 0      0       0       1        0.0%
BITSFR1              0      0       0       2        0.0%
SFR1                 0      0       0       2        0.0%
STACK                0      0       0       2        0.0%
ABS                  0      0      61       3        0.0%
BITBANK0            50      0       0       4        0.0%
BITSFR3              0      0       0       4        0.0%
SFR3                 0      0       0       4        0.0%
BANK0               50     4C      4E       5       97.5%
BITSFR2              0      0       0       5        0.0%
SFR2                 0      0       0       5        0.0%
BITBANK1            50      0       0       6        0.0%
BANK1               50      5       5       7        6.2%
BITBANK3            60      0       0       8        0.0%
BANK3               60      0       0       9        0.0%
BITBANK2            60      0       0      10        0.0%
BANK2               60      0       0      11        0.0%
DATA                 0      0      61      12        0.0%


Microchip Technology PIC Macro Assembler V2.36 build 20220127204148 
Symbol Table                                                                                   Wed Apr 27 14:37:06 2022

                     l41 0EE8                       l50 0F01                       l44 0F32  
                     l52 0F05                       l53 0F06                       l62 0F13  
                     l47 0EF1                       l56 0EFA                       l59 0F20  
    __Umul8_16@word_mpld 0076                      _PR2 0092                      _clk 0EE1  
                    _map 06C0                      _isr 0F9E             ___flmul@aexp 003C  
           ___flmul@bexp 003D             ___flmul@sign 0037             ___flmul@temp 0042  
           ___flmul@prod 003E             ___fltol@exp1 007D                     l1703 0F07  
                   ?_clk 0070                     l1705 0F0B                     l1707 0F0C  
                   l1731 07DC                     l1741 07F3                     l1733 07E1  
                   l1663 0EE1                     l1671 0F26                     l1743 07F8  
                   l1735 07E6                     l1665 0EE7                     l1673 0F2E  
                   l1681 0EFB                     l1737 07EB                     l1729 07CD  
                   l1675 0F2F                     l1691 0EF8                     l1683 0EFE  
                   l1739 07F0                     l1669 0F21                     l1685 0F00  
                   l1695 0F14                     l1679 0EE9                     l1687 0EF2  
                   l1697 0F1C                     l1689 0EF5                     l1699 0F1E  
                   ?_map 0061                     ?_isr 0070                     _CCPR 006C  
                   u2420 07F8                     u2421 07F7                     u2390 0F05  
                   u2391 0F04                     i1l72 0FF5                     i1l65 0750  
                   _main 07CD                     map@x 006B                     btemp 007E  
                   start 0010                    ??_clk 00A5                    ??_map 0067  
                  ??_isr 00A0            ___fltol@sign1 007C          __end_of___fladd 0604  
                  ?_main 0070          __end_of___flmul 037C          __end_of___fltol 07CD  
                  _ANSEL 0188          __end_of___lwdiv 0F9E                    i1l502 05F7  
                  i1l503 0603                    i1l360 07B7                    i1l600 0628  
                  i1l353 07CC                    i1l602 06BF                    i1l363 07CC  
                  i1l460 03DF                    i1l613 0689                    i1l614 0695  
                  i1l606 066D                    i1l439 0F9D                    i1l464 0486  
                  i1l481 0551                    i1l473 0603                    i1l466 045D  
                  i1l562 02E7                    i1l491 0597                    i1l556 037B  
                  i1l485 0575                    i1l494 05D5                    i1l575 0F47  
                  i1l568 036F                    i1l577 0F59                    _PORTA 0005  
                  _TRISA 0085                    map@x0 0061                    map@x1 0062  
                  map@y0 0063                    map@y1 0065                    _setup 0F07  
                  pclath 000A                    status 0003                    wtemp0 007E  
        __initialization 0013             __end_of_main 07FD                   ??_main 00A5  
                 _ADRESH 001E                   _CCPR1L 0015                   ?_setup 0070  
                 _ANSELH 0189                   i1l1211 0F36                   i1l1301 03A1  
                 i1l1213 0F3D                   i1l1311 03B7                   i1l1303 03A3  
                 i1l1215 0F41                   i1l1231 077C                   i1l1223 0751  
                 i1l1401 04C6                   i1l1321 03CC                   i1l1313 03BD  
                 i1l1305 03AB                   i1l1217 0F50                   i1l1209 0F34  
                 i1l1233 077D                   i1l1225 075E                   i1l1411 0529  
                 i1l1403 04C7                   i1l1331 03E9                   i1l1323 03D4  
                 i1l1315 03C1                   i1l1307 03B0                   i1l1219 0F55  
                 i1l1235 0785                   i1l1421 055E                   i1l1413 052F  
                 i1l1405 04D0                   i1l1341 03FD                   i1l1333 03ED  
                 i1l1325 03D5                   i1l1317 03C2                   i1l1309 03B6  
                 i1l1501 0054                   i1l1253 07AC                   i1l1245 0793  
                 i1l1237 0787                   i1l1229 0767                   i1l1261 0F5C  
                 i1l1431 0579                   i1l1415 0534                   i1l1407 04D5  
                 i1l1351 0411                   i1l1343 0401                   i1l1335 03F1  
                 i1l1319 03C7                   i1l1327 03D7                   i1l1511 006B  
                 i1l1503 0058                   i1l1255 07BC                   i1l1239 078B  
                 i1l1247 07A5                   i1l1271 0F74                   i1l1263 0F62  
                 i1l1433 057C                   i1l1425 0567                   i1l1409 04EB  
                 i1l1417 0543                   i1l1441 0589                   i1l1361 0425  
                 i1l1353 0415                   i1l1345 0405                   i1l1337 03F5  
                 i1l1329 03E5                   i1l1601 033A                   i1l1513 006D  
                 i1l1505 0059                   i1l1257 07C1                   i1l1273 0F85  
                 i1l1265 0F65                   i1l1281 0F99                   i1l1451 059C  
                 i1l1443 058A                   i1l1435 057E                   i1l1427 0570  
                 i1l1419 0559                   i1l1371 046A                   i1l1355 0419  
                 i1l1347 0409                   i1l1339 03F9                   i1l1363 0429  
                 i1l1291 038D                   i1l1611 0367                   i1l1603 0349  
                 i1l1531 00DE                   i1l1523 0088                   i1l1515 0075  
                 i1l1507 005E                   i1l1275 0F8B                   i1l1267 0F6C  
                 i1l1259 0F5A                   i1l1461 05DA                   i1l1453 05A1  
                 i1l1445 058E                   i1l1437 0583                   i1l1429 0574  
                 i1l1373 046C                   i1l1381 047E                   i1l1365 042A  
                 i1l1357 041D                   i1l1349 040D                   i1l1293 038E  
                 i1l1285 037C                   i1l1613 0368                   i1l1605 0353  
                 i1l1541 015B                   u200_25 0144                   i1l1533 010A  
                 i1l1525 0098                   i1l1517 007A                   i1l1509 0063  
                 i1l1277 0F8C                   i1l1269 0F70                   i1l1621 060C  
                 i1l1471 05F1                   i1l1463 05DF                   i1l1455 05AF  
                 i1l1447 0594                   i1l1439 0585                   i1l1391 04AF  
                 i1l1383 048A                   i1l1375 0470                   i1l1367 0441  
                 i1l1359 0421                   i1l1295 0393                   i1l1287 0383  
                 i1l1615 0373                   i1l1607 0355                   i1l1551 01DB  
                 i1l1543 0178                   i1l1535 0126                   i1l1527 00A5  
                 i1l1519 007F                   i1l1279 0F93                   i1l1631 0639  
                 i1l1623 0610                   i1l1711 06C3                   i1l1473 05F3  
                 i1l1465 05E7                   i1l1457 05B3                   i1l1393 04B3  
                 i1l1385 048F                   i1l1377 0471                   i1l1369 0461  
                 i1l1297 0398                   i1l1289 0389                   i1l1609 0363  
                 i1l1561 0293                   i1l1553 0208                   i1l1545 0188  
                 u201_21 016A                   i1l1537 0142                   i1l1529 00C2  
                 i1l1481 0022                   i1l1641 0664                   i1l1633 063E  
                 i1l1625 0620                   i1l1721 0FCE                   u201_22 0171  
                 i1l1475 05FE                   i1l1467 05EC                   i1l1459 05D1  
                 i1l1395 04B7                   i1l1379 047A                   i1l1299 03A0  
                 i1l1571 02B8                   i1l1563 029C                   i1l1555 0218  
                 i1l1547 01A5                   u201_23 0178                   i1l1539 014B  
                 i1l1491 0037                   i1l1483 0028                   i1l1651 0697  
                 i1l1643 0674                   i1l1635 064B                   i1l1627 0630  
                 i1l1619 0607                   i1l1723 0FE2                   i1l1715 0F9E  
                 i1l1477 0602                   i1l1469 05ED                   i1l1397 04C0  
                 i1l1389 0498                   i1l1581 02D0                   i1l1573 02C1  
                 i1l1565 02AA                   i1l1557 0245                   i1l1549 01BE  
                 i1l1493 003F                   i1l1485 002C                   i1l1653 06AD  
                 i1l1645 067F                   i1l1637 0652                   i1l1725 0FF3  
                 i1l1717 0FA4                   i1l1399 04C2                   i1l1591 02FF  
                 i1l1583 02E4                   i1l1567 02B3                   i1l1575 02C7  
                 i1l1559 026B                   i1l1495 0041                   i1l1487 002D  
                 i1l1479 001B                   i1l1655 06B2                   i1l1647 0683  
                 i1l1639 0656                   i1l1719 0FAF                   u122_20 0F41  
                 u130_20 07A4                   u122_21 0F40                   i1l1593 0303  
                 i1l1577 02CB                   i1l1569 02B7                   u210_21 0285  
                 u202_21 0197                   i1l1497 0049                   i1l1489 0032  
                 u130_21 07A3                   i1l1657 06B6                   i1l1649 068D  
                 u210_22 028C                   u202_22 019E                   i1l1595 031C  
                 i1l1587 02EC                   i1l1579 02CC                   u210_23 0293  
                 u202_23 01A5                   i1l1499 004E                   i1l1659 06B7  
                 i1l1589 02F1                   i1l1597 0322                   i1l1599 032F  
                 u131_20 07AB                   u131_21 07AA                   u123_25 0F48  
                 u211_25 0295                   u203_25 01A7                   u124_20 0F55  
                 u220_20 0303                   u124_21 0F54                   u220_21 0302  
                 u204_21 01CD                   u204_22 01D4                   u204_23 01DB  
                 u212_25 02AC                   u132_25 07AE                   u140_25 0F8D  
                 u221_20 0312                   u213_20 02B7                   u133_20 07BC  
                 u125_20 075E                   u141_20 0F99                   u213_21 02B6  
                 u205_21 01FA                   u133_21 07BB                   u125_21 075D  
                 u141_21 0F98                   u205_22 0201                   u205_23 0208  
                 u221_25 030D                   u150_20 03E9                   u142_20 038D  
                 u222_20 032F                   u134_20 07C1                   u126_20 0775  
                 u150_21 03E8                   u142_21 038C                   u222_21 032E  
                 u206_21 0227                   u134_21 07C0                   u206_22 022E  
                 u206_23 0235                   u222_25 032B                   u214_25 02BA  
                 u126_25 0770                   u230_25 0665                   u151_20 0441  
                 u143_20 0393                   u223_20 0349                   u215_20 02CB  
                 u207_20 0251                   u127_20 078B                   u135_20 0F62  
                 u231_20 0673                   u151_21 0440                   u143_21 0392  
                 u223_21 0348                   u215_21 02CA                   u127_21 078A  
                 u135_21 0F61                   u231_21 0672                   u151_25 043D  
                 u223_25 0345                   u207_25 024C                   u152_20 044C  
                 u144_20 0398                   u224_20 0367                   u216_20 02D0  
                 u128_20 0792                   u240_20 0FA4                   u160_21 04A1  
                 u152_21 044A                   u144_21 0397                   u224_21 0366  
                 u216_21 02CF                   u208_21 025D                   u128_21 0791  
                 u240_21 0FA3                   u160_22 04A8                   u208_22 0264  
                 u160_23 04AF                   u208_23 026B                   u136_25 0F66  
                 u232_25 0678                   u161_20 04B3                   u153_20 044D  
                 u145_20 03B6                   u217_20 02E4                   u209_20 0279  
                 u137_20 0F74                   u233_20 0683                   u225_20 060C  
                 u241_20 0FAF                   u161_21 04B2                   u145_21 03B5  
                 u217_21 02E3                   u137_21 0F73                   u233_21 0682  
                 u225_21 060B                   u241_21 0FAE                   u209_25 0274  
                 u129_25 0794                   u170_20 055E                   u162_20 04B7  
                 u154_20 0461                   u146_20 03C1                   u218_20 02EB  
                 u234_20 0689                   u226_20 0610                   u170_21 055D  
                 u162_21 04B6                   u154_21 0460                   u146_21 03C0  
                 u218_21 02EA                   u234_21 0688                   u226_21 060F  
                 u138_25 0F75                   u163_20 04C6                   u155_20 0470  
                 u147_20 03C7                   u219_20 02F1                   u139_20 0F85  
                 u235_20 068D                   u227_20 0630                   u163_21 04C5  
                 u155_21 046F                   u147_21 03C6                   u219_21 02F0  
                 u139_21 0F84                   u235_21 068C                   u227_21 062F  
                 u171_25 0569                   u139_25 0F81                   u180_20 05B3  
                 u172_20 0574                   u148_20 03CC                   u236_20 06A2  
                 u180_21 05B2                   u172_21 0573                   u148_21 03CB  
                 u164_25 04C9                   u156_25 0473                   u236_25 069D  
                 u228_25 0643                   u181_20 05C2                   u173_20 0579  
                 u165_20 04EB                   u157_20 0486                   u149_20 03E5  
                 u237_20 06B2                   u229_20 0651                   u173_21 0578  
                 u165_21 04EA                   u157_21 0485                   u149_21 03E4  
                 u237_21 06B1                   u229_21 0650                   u165_23 04E7  
                 u181_25 05BD                   u182_20 05D1                   u174_20 0583  
                 u158_20 048A                   u190_20 0037                   u238_20 06B6  
                 u182_21 05D0                   u174_21 0582                   u166_21 0502  
                 u158_21 0489                   u190_21 0036                   u238_21 06B5  
                 u166_22 0503                   u166_23 0508                   u166_24 0509  
                 u166_25 050E                   u166_26 050F                   u183_20 05DA  
                 u175_20 0589                   u167_20 0516                   u159_20 048F  
                 u191_20 0058                   u183_21 05D9                   u175_21 0588  
                 u167_21 0517                   u159_21 048E                   u191_21 0057  
                 u167_22 051C                   u167_23 051D                   u184_20 05DF  
                 u176_20 058E                   u168_20 0534                   u192_20 005E  
                 u184_21 05DE                   u176_21 058D                   u168_21 0533  
                 u192_21 005D                   u185_20 05EC                   u177_20 0594  
                 u169_20 0559                   u193_20 0063                   u185_21 05EB  
                 u177_21 0593                   u169_21 0558                   u193_21 0062  
                 u186_20 05F1                   u178_20 059B                   u194_20 007A  
                 u186_21 05F0                   u178_21 059A                   u194_21 0079  
                 u187_20 0602                   u179_20 05A1                   u195_20 007F  
                 u187_21 0601                   u179_21 05A0                   u195_21 007E  
                 u188_20 002C                   u196_21 00D0                   u188_21 002B  
                 u196_22 00D7                   u196_23 00DE                   u189_20 0032  
                 u197_21 00EC                   u189_21 0031                   u197_22 00F3  
                 u197_23 00FA                   u198_21 0118                   u198_22 011F  
                 u198_23 0126                   u199_21 0134                   u199_22 013B  
                 u199_23 0142         __end_of___xxtofl 06C0                ??___fladd 004C  
              ??___flmul 0032                ??___fltol 005C                ??___lwdiv 0074  
                 _timer2 0EFB                   saved_w 007E             ___xxtofl@arg 0026  
           ___xxtofl@exp 0025             ___xxtofl@val 0078  __end_of__initialization 0017  
             ___fltol@f1 0058           __pcstackCOMMON 0070            __end_of_setup 0F14  
                ??_setup 00A5               __pbssBANK0 006C        __end_of__Umul8_16 0F5A  
             __pmaintext 07CD               __pintentry 0004                  _CCP1CON 0017  
                ?_timer2 0070                ?___xxtofl 0078                  ___fladd 037C  
                ___flmul 001B                  ___fltol 0751                  ___lwdiv 0F5A  
                __ptext1 0EFB                  __ptext2 0EF2                  __ptext3 0EE9  
                __ptext4 0F14                  __ptext5 0F21                  __ptext6 0F07  
                __ptext7 0EE1                  __ptext8 0F9E                  __ptext9 06C0  
              _T2CONbits 0012               ??___xxtofl 0020     end_of_initialization 0017  
      __end_of_setup_adc 0F33        __end_of_setup_ccp 0F21        __end_of_setup_int 0EF2  
      __end_of_setup_pwm 0EFB              ___fladd@grs 0057            ___xxtofl@sign 0024  
              _TRISCbits 0087              ___flmul@grs 0038              _CCP1CONbits 0017  
         __end_of_timer2 0F07      start_initialization 0013              __end_of_clk 0EE9  
            __end_of_map 0751              __end_of_isr 1000                __Umul8_16 0F33  
               ??_timer2 00A5                ___fladd@a 0048                ___fladd@b 0044  
              ___flmul@a 002E                ___flmul@b 002A                ___latbits 0002  
          __pcstackBANK0 0020            __pcstackBANK1 00A0         ___lwdiv@dividend 0072  
               ?___fladd 0044                 ?___flmul 002A                 ?___fltol 0058  
             ?__Umul8_16 0070                 ?___lwdiv 0070         ___lwdiv@quotient 0075  
      interrupt_function 0004                 _PIE1bits 008C                 _PIR1bits 000C  
              _setup_adc 0F21                _setup_ccp 0F14                _setup_int 0EE9  
              _setup_pwm 0EF2               _ADCON0bits 001F               _ADCON1bits 009F  
            ??__Umul8_16 0072               ?_setup_adc 0070               ?_setup_ccp 0070  
             ?_setup_int 0070               ?_setup_pwm 0070                 ___xxtofl 0604  
        ___lwdiv@divisor 0070          ___lwdiv@counter 0077                 __ptext10 0604  
               __ptext11 0F5A                 __ptext12 0751                 __ptext13 001B  
               __ptext14 0F33                 __ptext15 037C               _INTCONbits 000B  
               intlevel1 0000               _OSCCONbits 008F              ??_setup_adc 00A5  
            ??_setup_ccp 00A5              ??_setup_int 00A5              ??_setup_pwm 00A5  
 __Umul8_16@multiplicand 0070            ___fladd@signs 0054             ___fladd@aexp 0055  
           ___fladd@bexp 0056     __Umul8_16@multiplier 0078        __Umul8_16@product 0074  
